Component: ARM Compiler 5.05 update 2 (build 169) Tool: armlink [4d0f33]

==============================================================================

Section Cross References

    os_fifo.o(i.os_fifo_check_buf) refers to os_fifo.o(i.os_fifo_get_count) for os_fifo_get_count
    os_fifo.o(i.os_fifo_check_offset_dat) refers to os_fifo.o(i.os_fifo_get_count) for os_fifo_get_count
    os_fifo.o(i.os_fifo_create) refers to os_heap.o(i.os_malloc) for os_malloc
    os_fifo.o(i.os_fifo_create) refers to os_fifo.o(i.os_fifo_init) for os_fifo_init
    os_fifo.o(i.os_fifo_create) refers to os_heap.o(i.os_free) for os_free
    os_fifo.o(i.os_fifo_flush_buf) refers to os_fifo.o(i.os_fifo_get_count) for os_fifo_get_count
    os_fifo.o(i.os_fifo_get_buf) refers to os_fifo.o(i.os_fifo_get_count) for os_fifo_get_count
    os_fifo.o(i.os_fifo_get_empty_space) refers to os_fifo.o(i.os_fifo_get_count) for os_fifo_get_count
    os_fifo.o(i.os_fifo_push_buf) refers to os_fifo.o(i.os_fifo_get_count) for os_fifo_get_count
    os_fifo.o(i.os_fifo_push_bufEx) refers to os_fifo.o(i.os_fifo_get_count) for os_fifo_get_count
    os_heap.o(i.os_heap_allocate) refers to os_heap.o(.data) for heapBeginAddr
    os_heap.o(i.os_heap_init) refers to os_heap.o(i.os_heap_allocate) for os_heap_allocate
    os_heap.o(i.os_heap_init) refers to os_heap.o(.bss) for systemHeap
    os_heap.o(i.os_malloc) refers to os_heap.o(.data) for heapBeginAddr
    os_ipc_msg.o(i.os_ipc_get_msg) refers to os_fifo.o(i.os_fifo_get_buf) for os_fifo_get_buf
    os_ipc_msg.o(i.os_ipc_msg_check) refers to os_fifo.o(i.os_fifo_check_buf) for os_fifo_check_buf
    os_ipc_msg.o(i.os_ipc_msg_create) refers to os_heap.o(i.os_malloc) for os_malloc
    os_ipc_msg.o(i.os_ipc_msg_create) refers to os_fifo.o(i.os_fifo_create) for os_fifo_create
    os_ipc_msg.o(i.os_ipc_msg_create) refers to os_heap.o(i.os_free) for os_free
    os_ipc_msg.o(i.os_ipc_msg_flush) refers to os_fifo.o(i.os_fifo_flush) for os_fifo_flush
    os_ipc_msg.o(i.os_ipc_msg_flush_one) refers to os_fifo.o(i.os_fifo_flush_buf) for os_fifo_flush_buf
    os_ipc_msg.o(i.os_ipc_msg_get_count) refers to os_fifo.o(i.os_fifo_get_count) for os_fifo_get_count
    os_ipc_msg.o(i.os_ipc_post_msg) refers to os_fifo.o(i.os_fifo_push_buf) for os_fifo_push_buf
    os_simlist.o(i.os_slist_add_data) refers to os_heap.o(i.os_malloc) for os_malloc
    os_simlist.o(i.os_slist_create) refers to os_heap.o(i.os_malloc) for os_malloc
    os_task.o(i.os_task_create) refers to os_task.o(i.os_task_create_proc) for os_task_create_proc
    os_task.o(i.os_task_create) refers to os_heap.o(i.os_malloc) for os_malloc
    os_task.o(i.os_task_create) refers to os_heap.o(i.os_free) for os_free
    os_task.o(i.os_task_create) refers to os_task.o(.data) for ptTaskHandleList
    os_task.o(i.os_task_create_proc) refers to os_heap.o(i.os_malloc) for os_malloc
    os_task.o(i.os_task_event_broadcast) refers to os_task.o(i.os_task_event_set) for os_task_event_set
    os_task.o(i.os_task_event_broadcast) refers to os_task.o(.data) for ptTaskHandleList
    os_task.o(i.os_task_event_check_occur) refers to os_task.o(.data) for ptTaskHandleList
    os_task.o(i.os_task_main) refers to os_task.o(.data) for ptTaskHandleList
    os_task.o(i.os_task_tick_remap) refers to os_task.o(.data) for ptOsTickHandle
    os_timer.o(i.os_timer_create) refers to os_heap.o(i.os_malloc) for os_malloc
    os_timer.o(i.os_timer_create) refers to os_timer.o(i.os_insert_timer) for os_insert_timer
    os_timer.o(i.os_timer_create) refers to os_heap.o(i.os_free) for os_free
    os_timer.o(i.os_timer_create) refers to os_timer.o(.data) for headOfTimerList
    os_timer.o(i.os_timer_ctrl) refers to os_timer.o(.data) for headOfTimerList
    os_timer.o(i.os_timer_reload_time) refers to os_timer.o(.data) for headOfTimerList
    os_timer.o(i.os_timer_run) refers to os_timer.o(.data) for headOfTimerList
    co_key.o(i.key_object_create) refers to os_heap.o(i.os_malloc) for os_malloc
    co_gpio_iic_1.o(i.co_gpio_i2c_create) refers to os_heap.o(i.os_malloc) for os_malloc
    co_gpio_iic_1.o(i.co_gpio_i2c_destroy) refers to os_heap.o(i.os_free) for os_free
    co_gpio_iic_1.o(i.co_gpio_i2c_read_buff) refers to co_gpio_iic_1.o(i.i2c_io_start) for i2c_io_start
    co_gpio_iic_1.o(i.co_gpio_i2c_read_buff) refers to co_gpio_iic_1.o(i.i2c_io_write) for i2c_io_write
    co_gpio_iic_1.o(i.co_gpio_i2c_read_buff) refers to co_gpio_iic_1.o(i.i2c_io_stop) for i2c_io_stop
    co_gpio_iic_1.o(i.co_gpio_i2c_read_buff) refers to co_gpio_iic_1.o(i.i2c_io_read) for i2c_io_read
    co_gpio_iic_1.o(i.co_gpio_i2c_read_buffCRC) refers to co_gpio_iic_1.o(i.co_gpio_i2c_read_buff) for co_gpio_i2c_read_buff
    co_gpio_iic_1.o(i.co_gpio_i2c_read_buffCRC) refers to co_gpio_iic_1.o(i.CRC8) for CRC8
    co_gpio_iic_1.o(i.co_gpio_i2c_read_buffCRC) refers to co_gpio_iic_1.o(.bss) for readBuffer
    co_gpio_iic_1.o(i.co_gpio_i2c_read_byteCRC) refers to co_gpio_iic_1.o(i.co_gpio_i2c_read_buff) for co_gpio_i2c_read_buff
    co_gpio_iic_1.o(i.co_gpio_i2c_read_byteCRC) refers to co_gpio_iic_1.o(i.CRC8) for CRC8
    co_gpio_iic_1.o(i.co_gpio_i2c_write_buff) refers to co_gpio_iic_1.o(i.i2c_io_start) for i2c_io_start
    co_gpio_iic_1.o(i.co_gpio_i2c_write_buff) refers to co_gpio_iic_1.o(i.i2c_io_write) for i2c_io_write
    co_gpio_iic_1.o(i.co_gpio_i2c_write_buff) refers to co_gpio_iic_1.o(i.i2c_io_stop) for i2c_io_stop
    co_gpio_iic_1.o(i.co_gpio_i2c_write_byteCRC) refers to co_gpio_iic_1.o(i.CRC8) for CRC8
    co_gpio_iic_1.o(i.co_gpio_i2c_write_byteCRC) refers to co_gpio_iic_1.o(i.co_gpio_i2c_write_buff) for co_gpio_i2c_write_buff
    co_packet.o(i.co_pack_create) refers to os_fifo.o(i.os_fifo_create) for os_fifo_create
    co_packet.o(i.co_pack_create) refers to os_heap.o(i.os_malloc) for os_malloc
    co_packet.o(i.co_pack_create) refers to os_heap.o(i.os_free) for os_free
    co_packet.o(i.co_pack_flush) refers to os_fifo.o(i.os_fifo_flush) for os_fifo_flush
    co_packet.o(i.co_pack_get_cnt) refers to os_fifo.o(i.os_fifo_get_count) for os_fifo_get_count
    co_packet.o(i.co_pack_get_one_frame) refers to co_packet.o(i.co_pack_flush) for co_pack_flush
    co_packet.o(i.co_pack_get_one_frame) refers to os_fifo.o(i.os_fifo_check_offset_dat) for os_fifo_check_offset_dat
    co_packet.o(i.co_pack_get_one_frame) refers to os_fifo.o(i.os_fifo_flush_buf) for os_fifo_flush_buf
    co_packet.o(i.co_pack_get_one_frame) refers to os_fifo.o(i.os_fifo_get_count) for os_fifo_get_count
    co_packet.o(i.co_pack_push_buf) refers to os_fifo.o(i.os_fifo_push_buf) for os_fifo_push_buf
    co_packet.o(i.co_pack_set_dat) refers to os_fifo.o(i.os_fifo_push_dat) for os_fifo_push_dat
    co_crc.o(i.crc_ccitt_16_xmodem) refers to co_crc.o(.constdata) for ccitt16Table
    drv_can.o(i.can_matrix_rx_id_mask_init) refers to hal_can.o(i.hal_can_32bit_id_mask) for hal_can_32bit_id_mask
    drv_can.o(i.drv_can_matrix_init) refers to hal_can.o(i.hal_can_set_id_mask) for hal_can_set_id_mask
    drv_can.o(i.drv_can_matrix_init) refers to drv_can.o(i.can_matrix_rx_id_mask_init) for can_matrix_rx_id_mask_init
    drv_can.o(i.drv_can_matrix_rx_register) refers to hal_can.o(i.hal_can_set_rx_callback) for hal_can_set_rx_callback
    drv_can.o(i.drv_can_matrix_rx_register) refers to drv_can.o(i.drv_can_rx_data_process) for drv_can_rx_data_process
    drv_can.o(i.drv_can_power_off) refers to hal_gpio.o(i.hal_gpio_write) for hal_gpio_write
    drv_can.o(i.drv_can_power_on) refers to hal_gpio.o(i.hal_gpio_write) for hal_gpio_write
    drv_can.o(i.drv_can_rx_data_process) refers to drv_can.o(.data) for canRxMatrixFunc
    drv_can.o(i.drv_can_start) refers to drv_can.o(i.drv_can_power_off) for drv_can_power_off
    drv_can.o(i.drv_can_start) refers to drv_can.o(i.drv_can_matrix_init) for drv_can_matrix_init
    drv_can.o(i.drv_can_start) refers to drv_can.o(i.drv_can_matrix_rx_register) for drv_can_matrix_rx_register
    drv_can.o(i.drv_can_start) refers to hal_can.o(i.hal_can_init) for hal_can_init
    drv_can.o(i.drv_can_start) refers to drv_can.o(i.drv_can_power_on) for drv_can_power_on
    drv_can.o(i.drv_can_write) refers to hal_can.o(i.hal_can_write_msg) for hal_can_write_msg
    drv_can.o(i.user_can_rx_matrix_handle_register) refers to drv_can.o(.data) for canRxMatrixFunc
    drv_print.o(i.db_assert_failed) refers to printf5.o(i.__0printf$5) for __2printf
    drv_print.o(i.drv_print_start) refers to hal_uart.o(i.hal_uart5_init) for hal_uart5_init
    drv_print.o(i.fputc) refers to hal_uart.o(i.hal_uart5_putchar) for hal_uart5_putchar
    drv_key.o(i.drv_key1_get_status) refers to hal_gpio.o(i.hal_gpio_read) for hal_gpio_read
    drv_key.o(i.drv_key_polling) refers to drv_key.o(.data) for keyScanArray
    drv_key.o(i.drv_key_scan_callback_register) refers to drv_key.o(.data) for callNum
    drv_key.o(i.drv_key_start) refers to hal_timer.o(i.hal_timer7_update_callback_register) for hal_timer7_update_callback_register
    drv_key.o(i.drv_key_start) refers to drv_key.o(.data) for keyScanArray
    drv_key.o(i.drv_key_start) refers to drv_key.o(i.drv_key_polling) for drv_key_polling
    drv_afe.o(i.bq769xx_OCD_set) refers to co_gpio_iic_1.o(i.co_gpio_i2c_write_byteCRC) for co_gpio_i2c_write_byteCRC
    drv_afe.o(i.bq769xx_OCD_set) refers to drv_afe.o(.data) for bq769xxRWHandle
    drv_afe.o(i.bq769xx_OV_UV_set) refers to co_gpio_iic_1.o(i.co_gpio_i2c_write_byteCRC) for co_gpio_i2c_write_byteCRC
    drv_afe.o(i.bq769xx_OV_UV_set) refers to drv_afe.o(.data) for bq769xxRWHandle
    drv_afe.o(i.bq769xx_SCD_OCD_range_set_ops) refers to co_gpio_iic_1.o(i.co_gpio_i2c_read_byteCRC) for co_gpio_i2c_read_byteCRC
    drv_afe.o(i.bq769xx_SCD_OCD_range_set_ops) refers to co_gpio_iic_1.o(i.co_gpio_i2c_write_byteCRC) for co_gpio_i2c_write_byteCRC
    drv_afe.o(i.bq769xx_SCD_OCD_range_set_ops) refers to drv_afe.o(.data) for bq769xxRWHandle
    drv_afe.o(i.bq769xx_SCD_set) refers to co_gpio_iic_1.o(i.co_gpio_i2c_write_byteCRC) for co_gpio_i2c_write_byteCRC
    drv_afe.o(i.bq769xx_SCD_set) refers to drv_afe.o(.data) for bq769xxRWHandle
    drv_afe.o(i.bq769xx_adc_detect_ctrl) refers to co_gpio_iic_1.o(i.co_gpio_i2c_read_byteCRC) for co_gpio_i2c_read_byteCRC
    drv_afe.o(i.bq769xx_adc_detect_ctrl) refers to co_gpio_iic_1.o(i.co_gpio_i2c_write_byteCRC) for co_gpio_i2c_write_byteCRC
    drv_afe.o(i.bq769xx_adc_detect_ctrl) refers to drv_afe.o(.data) for bq769xxRWHandle
    drv_afe.o(i.bq769xx_balance_ctrl) refers to co_gpio_iic_1.o(i.co_gpio_i2c_write_byteCRC) for co_gpio_i2c_write_byteCRC
    drv_afe.o(i.bq769xx_balance_ctrl) refers to drv_afe.o(.data) for bq769xxRWHandle
    drv_afe.o(i.bq769xx_cc_init) refers to co_gpio_iic_1.o(i.co_gpio_i2c_write_byteCRC) for co_gpio_i2c_write_byteCRC
    drv_afe.o(i.bq769xx_cc_init) refers to drv_afe.o(.data) for bq769xxRWHandle
    drv_afe.o(i.bq769xx_chg_off_dischg_off) refers to co_gpio_iic_1.o(i.co_gpio_i2c_read_byteCRC) for co_gpio_i2c_read_byteCRC
    drv_afe.o(i.bq769xx_chg_off_dischg_off) refers to co_gpio_iic_1.o(i.co_gpio_i2c_write_byteCRC) for co_gpio_i2c_write_byteCRC
    drv_afe.o(i.bq769xx_chg_off_dischg_off) refers to drv_afe.o(.data) for bq769xxRWHandle
    drv_afe.o(i.bq769xx_chg_off_dischg_on) refers to co_gpio_iic_1.o(i.co_gpio_i2c_read_byteCRC) for co_gpio_i2c_read_byteCRC
    drv_afe.o(i.bq769xx_chg_off_dischg_on) refers to co_gpio_iic_1.o(i.co_gpio_i2c_write_byteCRC) for co_gpio_i2c_write_byteCRC
    drv_afe.o(i.bq769xx_chg_off_dischg_on) refers to drv_afe.o(.data) for bq769xxRWHandle
    drv_afe.o(i.bq769xx_chg_on_dischg_off) refers to co_gpio_iic_1.o(i.co_gpio_i2c_read_byteCRC) for co_gpio_i2c_read_byteCRC
    drv_afe.o(i.bq769xx_chg_on_dischg_off) refers to co_gpio_iic_1.o(i.co_gpio_i2c_write_byteCRC) for co_gpio_i2c_write_byteCRC
    drv_afe.o(i.bq769xx_chg_on_dischg_off) refers to drv_afe.o(.data) for bq769xxRWHandle
    drv_afe.o(i.bq769xx_chg_on_dischg_on) refers to co_gpio_iic_1.o(i.co_gpio_i2c_read_byteCRC) for co_gpio_i2c_read_byteCRC
    drv_afe.o(i.bq769xx_chg_on_dischg_on) refers to co_gpio_iic_1.o(i.co_gpio_i2c_write_byteCRC) for co_gpio_i2c_write_byteCRC
    drv_afe.o(i.bq769xx_chg_on_dischg_on) refers to drv_afe.o(.data) for bq769xxRWHandle
    drv_afe.o(i.bq769xx_current_detect_ctrl) refers to co_gpio_iic_1.o(i.co_gpio_i2c_write_byteCRC) for co_gpio_i2c_write_byteCRC
    drv_afe.o(i.bq769xx_current_detect_ctrl) refers to co_gpio_iic_1.o(i.co_gpio_i2c_read_byteCRC) for co_gpio_i2c_read_byteCRC
    drv_afe.o(i.bq769xx_current_detect_ctrl) refers to drv_afe.o(.data) for bq769xxRWHandle
    drv_afe.o(i.bq769xx_enter_ship_mode) refers to co_gpio_iic_1.o(i.co_gpio_i2c_write_byteCRC) for co_gpio_i2c_write_byteCRC
    drv_afe.o(i.bq769xx_enter_ship_mode) refers to drv_afe.o(.data) for bq769xxRWHandle
    drv_afe.o(i.bq769xx_get_cell_volt) refers to co_gpio_iic_1.o(i.co_gpio_i2c_read_buffCRC) for co_gpio_i2c_read_buffCRC
    drv_afe.o(i.bq769xx_get_cell_volt) refers to drv_afe.o(.data) for bq769xxRWHandle
    drv_afe.o(i.bq769xx_get_current_adc) refers to co_gpio_iic_1.o(i.co_gpio_i2c_read_buffCRC) for co_gpio_i2c_read_buffCRC
    drv_afe.o(i.bq769xx_get_current_adc) refers to drv_afe.o(.data) for bq769xxRWHandle
    drv_afe.o(i.bq769xx_get_gain) refers to co_gpio_iic_1.o(i.co_gpio_i2c_read_byteCRC) for co_gpio_i2c_read_byteCRC
    drv_afe.o(i.bq769xx_get_gain) refers to drv_afe.o(.data) for bq769xxRWHandle
    drv_afe.o(i.bq769xx_get_offset) refers to co_gpio_iic_1.o(i.co_gpio_i2c_read_byteCRC) for co_gpio_i2c_read_byteCRC
    drv_afe.o(i.bq769xx_get_offset) refers to drv_afe.o(.data) for bq769xxRWHandle
    drv_afe.o(i.drv_afe_start) refers to co_gpio_iic_1.o(i.co_gpio_i2c_create) for co_gpio_i2c_create
    drv_afe.o(i.drv_afe_start) refers to drv_afe.o(i.gpio_iic_delay) for gpio_iic_delay
    drv_afe.o(i.drv_afe_start) refers to drv_afe.o(i.gpio_iic_sda_ctrl) for gpio_iic_sda_ctrl
    drv_afe.o(i.drv_afe_start) refers to drv_afe.o(i.gpio_iic_scl_ctrl) for gpio_iic_scl_ctrl
    drv_afe.o(i.drv_afe_start) refers to drv_afe.o(.data) for bq769xxRWHandle
    drv_afe.o(i.gpio_iic_scl_ctrl) refers to hal_gpio.o(i.hal_gpio_write) for hal_gpio_write
    drv_afe.o(i.gpio_iic_scl_ctrl) refers to hal_gpio.o(i.hal_gpio_read) for hal_gpio_read
    drv_afe.o(i.gpio_iic_sda_ctrl) refers to hal_gpio.o(i.hal_gpio_write) for hal_gpio_write
    drv_afe.o(i.gpio_iic_sda_ctrl) refers to hal_gpio.o(i.hal_gpio_read) for hal_gpio_read
    drv_ex_flash.o(i.drv_ex_flash_erase_chip) refers to drv_ex_flash.o(i.ex_flash_cmd_write_enable) for ex_flash_cmd_write_enable
    drv_ex_flash.o(i.drv_ex_flash_erase_chip) refers to drv_ex_flash.o(i.ex_flash_wait_busy) for ex_flash_wait_busy
    drv_ex_flash.o(i.drv_ex_flash_erase_chip) refers to drv_ex_flash.o(i.ex_flash_enable) for ex_flash_enable
    drv_ex_flash.o(i.drv_ex_flash_erase_chip) refers to hal_spi.o(i.hal_spi1_write_byte) for hal_spi1_write_byte
    drv_ex_flash.o(i.drv_ex_flash_erase_chip) refers to drv_ex_flash.o(i.ex_flash_disable) for ex_flash_disable
    drv_ex_flash.o(i.drv_ex_flash_erase_sector) refers to drv_ex_flash.o(i.ex_flash_cmd_write_enable) for ex_flash_cmd_write_enable
    drv_ex_flash.o(i.drv_ex_flash_erase_sector) refers to drv_ex_flash.o(i.ex_flash_wait_busy) for ex_flash_wait_busy
    drv_ex_flash.o(i.drv_ex_flash_erase_sector) refers to drv_ex_flash.o(i.ex_flash_enable) for ex_flash_enable
    drv_ex_flash.o(i.drv_ex_flash_erase_sector) refers to hal_spi.o(i.hal_spi1_write_byte) for hal_spi1_write_byte
    drv_ex_flash.o(i.drv_ex_flash_erase_sector) refers to drv_ex_flash.o(i.ex_flash_disable) for ex_flash_disable
    drv_ex_flash.o(i.drv_ex_flash_power_down) refers to drv_ex_flash.o(i.ex_flash_enable) for ex_flash_enable
    drv_ex_flash.o(i.drv_ex_flash_power_down) refers to hal_spi.o(i.hal_spi1_write_byte) for hal_spi1_write_byte
    drv_ex_flash.o(i.drv_ex_flash_power_down) refers to drv_ex_flash.o(i.ex_flash_disable) for ex_flash_disable
    drv_ex_flash.o(i.drv_ex_flash_read_buff) refers to drv_ex_flash.o(i.ex_flash_enable) for ex_flash_enable
    drv_ex_flash.o(i.drv_ex_flash_read_buff) refers to hal_spi.o(i.hal_spi1_write_byte) for hal_spi1_write_byte
    drv_ex_flash.o(i.drv_ex_flash_read_buff) refers to hal_spi.o(i.hal_spi1_read_byte) for hal_spi1_read_byte
    drv_ex_flash.o(i.drv_ex_flash_read_buff) refers to drv_ex_flash.o(i.ex_flash_disable) for ex_flash_disable
    drv_ex_flash.o(i.drv_ex_flash_read_dev_id) refers to drv_ex_flash.o(i.ex_flash_enable) for ex_flash_enable
    drv_ex_flash.o(i.drv_ex_flash_read_dev_id) refers to hal_spi.o(i.hal_spi1_write_byte) for hal_spi1_write_byte
    drv_ex_flash.o(i.drv_ex_flash_read_dev_id) refers to hal_spi.o(i.hal_spi1_read_byte) for hal_spi1_read_byte
    drv_ex_flash.o(i.drv_ex_flash_read_dev_id) refers to drv_ex_flash.o(i.ex_flash_disable) for ex_flash_disable
    drv_ex_flash.o(i.drv_ex_flash_read_manufacture_id) refers to drv_ex_flash.o(i.ex_flash_enable) for ex_flash_enable
    drv_ex_flash.o(i.drv_ex_flash_read_manufacture_id) refers to hal_spi.o(i.hal_spi1_write_byte) for hal_spi1_write_byte
    drv_ex_flash.o(i.drv_ex_flash_read_manufacture_id) refers to hal_spi.o(i.hal_spi1_read_byte) for hal_spi1_read_byte
    drv_ex_flash.o(i.drv_ex_flash_read_manufacture_id) refers to drv_ex_flash.o(i.ex_flash_disable) for ex_flash_disable
    drv_ex_flash.o(i.drv_ex_flash_start) refers to drv_ex_flash.o(i.drv_ex_flash_wp_disable) for drv_ex_flash_wp_disable
    drv_ex_flash.o(i.drv_ex_flash_start) refers to drv_ex_flash.o(i.ex_flash_cmd_write_disable) for ex_flash_cmd_write_disable
    drv_ex_flash.o(i.drv_ex_flash_start) refers to drv_ex_flash.o(i.ex_flash_disable) for ex_flash_disable
    drv_ex_flash.o(i.drv_ex_flash_start) refers to drv_ex_flash.o(i.drv_ex_flash_read_dev_id) for drv_ex_flash_read_dev_id
    drv_ex_flash.o(i.drv_ex_flash_start) refers to printf5.o(i.__0printf$5) for __2printf
    drv_ex_flash.o(i.drv_ex_flash_wake_up) refers to drv_ex_flash.o(i.ex_flash_enable) for ex_flash_enable
    drv_ex_flash.o(i.drv_ex_flash_wake_up) refers to hal_spi.o(i.hal_spi1_write_byte) for hal_spi1_write_byte
    drv_ex_flash.o(i.drv_ex_flash_wake_up) refers to drv_ex_flash.o(i.ex_flash_disable) for ex_flash_disable
    drv_ex_flash.o(i.drv_ex_flash_wp_disable) refers to hal_gpio.o(i.hal_gpio_write) for hal_gpio_write
    drv_ex_flash.o(i.drv_ex_flash_wp_enable) refers to hal_gpio.o(i.hal_gpio_write) for hal_gpio_write
    drv_ex_flash.o(i.drv_ex_flash_write_buff) refers to drv_ex_flash.o(i.drv_ex_flash_read_buff) for drv_ex_flash_read_buff
    drv_ex_flash.o(i.drv_ex_flash_write_buff) refers to drv_ex_flash.o(i.drv_ex_flash_erase_sector) for drv_ex_flash_erase_sector
    drv_ex_flash.o(i.drv_ex_flash_write_buff) refers to drv_ex_flash.o(i.ex_flash_write_nocheck) for ex_flash_write_nocheck
    drv_ex_flash.o(i.drv_ex_flash_write_buff) refers to drv_ex_flash.o(.bss) for writeBuff
    drv_ex_flash.o(i.ex_flash_cmd_write_disable) refers to drv_ex_flash.o(i.ex_flash_enable) for ex_flash_enable
    drv_ex_flash.o(i.ex_flash_cmd_write_disable) refers to hal_spi.o(i.hal_spi1_write_byte) for hal_spi1_write_byte
    drv_ex_flash.o(i.ex_flash_cmd_write_disable) refers to drv_ex_flash.o(i.ex_flash_disable) for ex_flash_disable
    drv_ex_flash.o(i.ex_flash_cmd_write_enable) refers to drv_ex_flash.o(i.ex_flash_enable) for ex_flash_enable
    drv_ex_flash.o(i.ex_flash_cmd_write_enable) refers to hal_spi.o(i.hal_spi1_write_byte) for hal_spi1_write_byte
    drv_ex_flash.o(i.ex_flash_cmd_write_enable) refers to drv_ex_flash.o(i.ex_flash_disable) for ex_flash_disable
    drv_ex_flash.o(i.ex_flash_disable) refers to hal_gpio.o(i.hal_gpio_write) for hal_gpio_write
    drv_ex_flash.o(i.ex_flash_enable) refers to hal_gpio.o(i.hal_gpio_write) for hal_gpio_write
    drv_ex_flash.o(i.ex_flash_read_sr_low8) refers to drv_ex_flash.o(i.ex_flash_enable) for ex_flash_enable
    drv_ex_flash.o(i.ex_flash_read_sr_low8) refers to hal_spi.o(i.hal_spi1_write_byte) for hal_spi1_write_byte
    drv_ex_flash.o(i.ex_flash_read_sr_low8) refers to hal_spi.o(i.hal_spi1_read_byte) for hal_spi1_read_byte
    drv_ex_flash.o(i.ex_flash_read_sr_low8) refers to drv_ex_flash.o(i.ex_flash_disable) for ex_flash_disable
    drv_ex_flash.o(i.ex_flash_wait_busy) refers to drv_ex_flash.o(i.ex_flash_read_sr_low8) for ex_flash_read_sr_low8
    drv_ex_flash.o(i.ex_flash_write_nocheck) refers to drv_ex_flash.o(i.ex_flash_write_page) for ex_flash_write_page
    drv_ex_flash.o(i.ex_flash_write_page) refers to drv_ex_flash.o(i.ex_flash_cmd_write_enable) for ex_flash_cmd_write_enable
    drv_ex_flash.o(i.ex_flash_write_page) refers to drv_ex_flash.o(i.ex_flash_wait_busy) for ex_flash_wait_busy
    drv_ex_flash.o(i.ex_flash_write_page) refers to drv_ex_flash.o(i.ex_flash_enable) for ex_flash_enable
    drv_ex_flash.o(i.ex_flash_write_page) refers to hal_spi.o(i.hal_spi1_write_byte) for hal_spi1_write_byte
    drv_ex_flash.o(i.ex_flash_write_page) refers to drv_ex_flash.o(i.ex_flash_disable) for ex_flash_disable
    drv_led.o(i.drv_led1_off) refers to drv_led.o(.data) for allLedStatus
    drv_led.o(i.drv_led1_on) refers to drv_led.o(.data) for allLedStatus
    drv_led.o(i.drv_led2_off) refers to drv_led.o(.data) for allLedStatus
    drv_led.o(i.drv_led2_on) refers to drv_led.o(.data) for allLedStatus
    drv_led.o(i.drv_led3_off) refers to drv_led.o(.data) for allLedStatus
    drv_led.o(i.drv_led3_on) refers to drv_led.o(.data) for allLedStatus
    drv_led.o(i.drv_led4_off) refers to drv_led.o(.data) for allLedStatus
    drv_led.o(i.drv_led4_on) refers to drv_led.o(.data) for allLedStatus
    drv_led.o(i.drv_led5_off) refers to drv_led.o(.data) for allLedStatus
    drv_led.o(i.drv_led5_on) refers to drv_led.o(.data) for allLedStatus
    drv_led.o(i.drv_led6_off) refers to drv_led.o(.data) for allLedStatus
    drv_led.o(i.drv_led6_on) refers to drv_led.o(.data) for allLedStatus
    drv_led.o(i.drv_led7_off) refers to drv_led.o(.data) for allLedStatus
    drv_led.o(i.drv_led7_on) refers to drv_led.o(.data) for allLedStatus
    drv_led.o(i.drv_led_start) refers to hal_timer.o(i.hal_timer7_update_callback_register) for hal_timer7_update_callback_register
    drv_led.o(i.drv_led_start) refers to drv_led.o(i.led_on_off_scan) for led_on_off_scan
    drv_led.o(i.drv_led_start) refers to drv_led.o(.data) for allLedStatus
    drv_led.o(i.hw_led1_on) refers to hal_gpio.o(i.hal_gpio_ctrl) for hal_gpio_ctrl
    drv_led.o(i.hw_led1_on) refers to hal_gpio.o(i.hal_gpio_write) for hal_gpio_write
    drv_led.o(i.hw_led2_on) refers to hal_gpio.o(i.hal_gpio_ctrl) for hal_gpio_ctrl
    drv_led.o(i.hw_led2_on) refers to hal_gpio.o(i.hal_gpio_write) for hal_gpio_write
    drv_led.o(i.hw_led3_on) refers to hal_gpio.o(i.hal_gpio_ctrl) for hal_gpio_ctrl
    drv_led.o(i.hw_led3_on) refers to hal_gpio.o(i.hal_gpio_write) for hal_gpio_write
    drv_led.o(i.hw_led4_on) refers to hal_gpio.o(i.hal_gpio_ctrl) for hal_gpio_ctrl
    drv_led.o(i.hw_led4_on) refers to hal_gpio.o(i.hal_gpio_write) for hal_gpio_write
    drv_led.o(i.hw_led5_on) refers to hal_gpio.o(i.hal_gpio_ctrl) for hal_gpio_ctrl
    drv_led.o(i.hw_led5_on) refers to hal_gpio.o(i.hal_gpio_write) for hal_gpio_write
    drv_led.o(i.hw_led6_on) refers to hal_gpio.o(i.hal_gpio_ctrl) for hal_gpio_ctrl
    drv_led.o(i.hw_led6_on) refers to hal_gpio.o(i.hal_gpio_write) for hal_gpio_write
    drv_led.o(i.hw_led7_on) refers to hal_gpio.o(i.hal_gpio_ctrl) for hal_gpio_ctrl
    drv_led.o(i.hw_led7_on) refers to hal_gpio.o(i.hal_gpio_write) for hal_gpio_write
    drv_led.o(i.led_on_off_scan) refers to drv_led.o(.data) for time
    drv_led.o(.data) refers to drv_led.o(i.hw_led1_off) for hw_led1_off
    drv_led.o(.data) refers to drv_led.o(i.hw_led1_on) for hw_led1_on
    drv_led.o(.data) refers to drv_led.o(i.hw_led2_off) for hw_led2_off
    drv_led.o(.data) refers to drv_led.o(i.hw_led2_on) for hw_led2_on
    drv_led.o(.data) refers to drv_led.o(i.hw_led3_off) for hw_led3_off
    drv_led.o(.data) refers to drv_led.o(i.hw_led3_on) for hw_led3_on
    drv_led.o(.data) refers to drv_led.o(i.hw_led4_off) for hw_led4_off
    drv_led.o(.data) refers to drv_led.o(i.hw_led4_on) for hw_led4_on
    drv_led.o(.data) refers to drv_led.o(i.hw_led5_off) for hw_led5_off
    drv_led.o(.data) refers to drv_led.o(i.hw_led5_on) for hw_led5_on
    drv_led.o(.data) refers to drv_led.o(i.hw_led6_off) for hw_led6_off
    drv_led.o(.data) refers to drv_led.o(i.hw_led6_on) for hw_led6_on
    drv_led.o(.data) refers to drv_led.o(i.hw_led7_off) for hw_led7_off
    drv_led.o(.data) refers to drv_led.o(i.hw_led7_on) for hw_led7_on
    hal_mcu.o(i.SysTick_Handler) refers to stm32f1xx_hal.o(i.HAL_IncTick) for HAL_IncTick
    hal_mcu.o(i.SysTick_Handler) refers to hal_mcu.o(.data) for sysTickCallFunc
    hal_mcu.o(i.hal_get_sys_freq) refers to stm32f1xx_hal_rcc.o(i.HAL_RCC_GetSysClockFreq) for HAL_RCC_GetSysClockFreq
    hal_mcu.o(i.hal_get_tick) refers to stm32f1xx_hal.o(i.HAL_GetTick) for HAL_GetTick
    hal_mcu.o(i.hal_mcu_common_init) refers to stm32f1xx_hal.o(i.HAL_Init) for HAL_Init
    hal_mcu.o(i.hal_mcu_common_init) refers to hal_clk.o(i.hal_clk_init) for hal_clk_init
    hal_mcu.o(i.hal_mcu_common_init) refers to hal_gpio.o(i.hal_gpio_init) for hal_gpio_init
    hal_mcu.o(i.hal_mcu_common_init) refers to hal_timer.o(i.hal_timer7_init) for hal_timer7_init
    hal_mcu.o(i.hal_mcu_common_init) refers to hal_spi.o(i.hal_spi1_init) for hal_spi1_init
    hal_mcu.o(i.hal_systick_update_callback_register) refers to hal_mcu.o(.data) for sysTickCallFunc
    hal_clk.o(i.hal_clk_init) refers to stm32f1xx_hal_rcc.o(i.HAL_RCC_OscConfig) for HAL_RCC_OscConfig
    hal_clk.o(i.hal_clk_init) refers to stm32f1xx_hal_rcc.o(i.HAL_RCC_ClockConfig) for HAL_RCC_ClockConfig
    hal_clk.o(i.hal_clk_init) refers to stm32f1xx_hal_rcc_ex.o(i.HAL_RCCEx_PeriphCLKConfig) for HAL_RCCEx_PeriphCLKConfig
    hal_clk.o(i.hal_clk_init) refers to stm32f1xx_hal_rcc.o(i.HAL_RCC_GetHCLKFreq) for HAL_RCC_GetHCLKFreq
    hal_clk.o(i.hal_clk_init) refers to stm32f1xx_hal_cortex.o(i.HAL_SYSTICK_Config) for HAL_SYSTICK_Config
    hal_clk.o(i.hal_clk_init) refers to stm32f1xx_hal_cortex.o(i.HAL_SYSTICK_CLKSourceConfig) for HAL_SYSTICK_CLKSourceConfig
    hal_clk.o(i.hal_clk_init) refers to stm32f1xx_hal_cortex.o(i.HAL_NVIC_SetPriority) for HAL_NVIC_SetPriority
    hal_gpio.o(i.hal_gpio_ctrl) refers to stm32f1xx_hal_gpio.o(i.HAL_GPIO_Init) for HAL_GPIO_Init
    hal_gpio.o(i.hal_gpio_ctrl) refers to hal_gpio.o(.constdata) for gpioConfigArray
    hal_gpio.o(i.hal_gpio_init) refers to stm32f1xx_hal_gpio.o(i.HAL_GPIO_Init) for HAL_GPIO_Init
    hal_gpio.o(i.hal_gpio_init) refers to hal_gpio.o(.constdata) for gpioConfigArray
    hal_gpio.o(i.hal_gpio_read) refers to stm32f1xx_hal_gpio.o(i.HAL_GPIO_ReadPin) for HAL_GPIO_ReadPin
    hal_gpio.o(i.hal_gpio_read) refers to hal_gpio.o(.constdata) for gpioConfigArray
    hal_gpio.o(i.hal_gpio_write) refers to stm32f1xx_hal_gpio.o(i.HAL_GPIO_WritePin) for HAL_GPIO_WritePin
    hal_gpio.o(i.hal_gpio_write) refers to stm32f1xx_hal_gpio.o(i.HAL_GPIO_TogglePin) for HAL_GPIO_TogglePin
    hal_gpio.o(i.hal_gpio_write) refers to hal_gpio.o(.constdata) for gpioConfigArray
    hal_wtd.o(i.hal_wtd_init) refers to stm32f1xx_hal_iwdg.o(i.HAL_IWDG_Init) for HAL_IWDG_Init
    hal_wtd.o(i.hal_wtd_init) refers to hal_wtd.o(.bss) for hiwdg
    hal_wtd.o(i.hal_wtd_refresh) refers to stm32f1xx_hal_iwdg.o(i.HAL_IWDG_Refresh) for HAL_IWDG_Refresh
    hal_wtd.o(i.hal_wtd_refresh) refers to hal_wtd.o(.bss) for hiwdg
    hal_timer.o(i.TIM7_IRQHandler) refers to hal_timer.o(.bss) for htim7
    hal_timer.o(i.hal_timer7_init) refers to stm32f1xx_hal_rcc.o(i.HAL_RCC_GetPCLK1Freq) for HAL_RCC_GetPCLK1Freq
    hal_timer.o(i.hal_timer7_init) refers to stm32f1xx_hal_tim.o(i.HAL_TIM_Base_Init) for HAL_TIM_Base_Init
    hal_timer.o(i.hal_timer7_init) refers to stm32f1xx_hal_cortex.o(i.HAL_NVIC_SetPriority) for HAL_NVIC_SetPriority
    hal_timer.o(i.hal_timer7_init) refers to stm32f1xx_hal_cortex.o(i.HAL_NVIC_EnableIRQ) for HAL_NVIC_EnableIRQ
    hal_timer.o(i.hal_timer7_init) refers to hal_timer.o(.bss) for timer7UpdateCallBackArray
    hal_timer.o(i.hal_timer7_update_callback_register) refers to hal_timer.o(.data) for callNum
    hal_timer.o(i.hal_timer7_update_callback_register) refers to hal_timer.o(.bss) for timer7UpdateCallBackArray
    hal_uart.o(i.hal_uart5_init) refers to stm32f1xx_hal_uart.o(i.HAL_UART_DeInit) for HAL_UART_DeInit
    hal_uart.o(i.hal_uart5_init) refers to stm32f1xx_hal_uart.o(i.HAL_UART_Init) for HAL_UART_Init
    hal_uart.o(i.hal_uart5_init) refers to hal_uart.o(.bss) for uart5Handle
    hal_uart.o(i.hal_uart5_putchar) refers to hal_uart.o(.bss) for uart5Handle
    hal_can.o(i.CAN1_RX1_IRQHandler) refers to stm32f1xx_hal_can.o(i.HAL_CAN_IRQHandler) for HAL_CAN_IRQHandler
    hal_can.o(i.CAN1_RX1_IRQHandler) refers to hal_can.o(.bss) for hCan1Handle
    hal_can.o(i.CAN1_SCE_IRQHandler) refers to stm32f1xx_hal_can.o(i.HAL_CAN_IRQHandler) for HAL_CAN_IRQHandler
    hal_can.o(i.CAN1_SCE_IRQHandler) refers to hal_can.o(.bss) for hCan1Handle
    hal_can.o(i.USB_HP_CAN1_TX_IRQHandler) refers to stm32f1xx_hal_can.o(i.HAL_CAN_IRQHandler) for HAL_CAN_IRQHandler
    hal_can.o(i.USB_HP_CAN1_TX_IRQHandler) refers to hal_can.o(.bss) for hCan1Handle
    hal_can.o(i.USB_LP_CAN1_RX0_IRQHandler) refers to hal_can.o(.bss) for hCan1Handle
    hal_can.o(i.USB_LP_CAN1_RX0_IRQHandler) refers to hal_can.o(.data) for funCanRxMsgIrq
    hal_can.o(i.can_get_one_mailbox) refers to hal_can.o(i.hal_can_get_empty_mailbox) for hal_can_get_empty_mailbox
    hal_can.o(i.hal_can_16bit_id_mask) refers to stm32f1xx_hal_can.o(i.HAL_CAN_ConfigFilter) for HAL_CAN_ConfigFilter
    hal_can.o(i.hal_can_16bit_id_mask) refers to hal_can.o(.bss) for hCan1Handle
    hal_can.o(i.hal_can_32bit_id_mask) refers to stm32f1xx_hal_can.o(i.HAL_CAN_ConfigFilter) for HAL_CAN_ConfigFilter
    hal_can.o(i.hal_can_32bit_id_mask) refers to hal_can.o(.bss) for hCan1Handle
    hal_can.o(i.hal_can_deinit) refers to stm32f1xx_hal_can.o(i.HAL_CAN_DeInit) for HAL_CAN_DeInit
    hal_can.o(i.hal_can_deinit) refers to hal_can.o(.bss) for hCan1Handle
    hal_can.o(i.hal_can_init) refers to stm32f1xx_hal_can.o(i.HAL_CAN_DeInit) for HAL_CAN_DeInit
    hal_can.o(i.hal_can_init) refers to hal_can.o(i.hal_can_set_baud) for hal_can_set_baud
    hal_can.o(i.hal_can_init) refers to hal_can.o(i.hal_can_32bit_id_mask) for hal_can_32bit_id_mask
    hal_can.o(i.hal_can_init) refers to stm32f1xx_hal_can.o(i.HAL_CAN_Init) for HAL_CAN_Init
    hal_can.o(i.hal_can_init) refers to hal_can.o(i.hal_can_rx_irq_callback_register) for hal_can_rx_irq_callback_register
    hal_can.o(i.hal_can_init) refers to stm32f1xx_hal_cortex.o(i.HAL_NVIC_SetPriority) for HAL_NVIC_SetPriority
    hal_can.o(i.hal_can_init) refers to stm32f1xx_hal_cortex.o(i.HAL_NVIC_EnableIRQ) for HAL_NVIC_EnableIRQ
    hal_can.o(i.hal_can_init) refers to hal_can.o(.bss) for hCan1Handle
    hal_can.o(i.hal_can_init) refers to hal_can.o(.data) for canIdMaskInit
    hal_can.o(i.hal_can_init) refers to hal_can.o(i.hal_can_read_msg) for hal_can_read_msg
    hal_can.o(i.hal_can_read_msg) refers to hal_can.o(i.hal_can_read) for hal_can_read
    hal_can.o(i.hal_can_read_msg) refers to hal_can.o(.data) for canRxDataCallback
    hal_can.o(i.hal_can_rx_irq_callback_register) refers to hal_can.o(.data) for funCanRxMsgIrq
    hal_can.o(i.hal_can_send_msg) refers to memseta.o(.text) for __aeabi_memclr4
    hal_can.o(i.hal_can_send_msg) refers to hal_can.o(i.can_get_one_mailbox) for can_get_one_mailbox
    hal_can.o(i.hal_can_send_msg) refers to hal_can.o(i.hal_can_send) for hal_can_send
    hal_can.o(i.hal_can_set_baud) refers to hal_can.o(.constdata) for canBaudTable
    hal_can.o(i.hal_can_set_id_mask) refers to hal_can.o(.data) for canIdMaskInit
    hal_can.o(i.hal_can_set_rx_callback) refers to hal_can.o(.data) for canRxDataCallback
    hal_can.o(i.hal_can_write_msg) refers to hal_can.o(i.hal_can_send_msg) for hal_can_send_msg
    hal_can.o(i.hal_can_write_msg) refers to hal_can.o(.bss) for canTxCallbackIrq
    hal_flash.o(i.hal_flash_erase) refers to stm32f1xx_hal_flash.o(i.HAL_FLASH_Unlock) for HAL_FLASH_Unlock
    hal_flash.o(i.hal_flash_erase) refers to stm32f1xx_hal_flash_ex.o(i.HAL_FLASHEx_Erase) for HAL_FLASHEx_Erase
    hal_flash.o(i.hal_flash_erase) refers to stm32f1xx_hal_flash.o(i.HAL_FLASH_Lock) for HAL_FLASH_Lock
    hal_flash.o(i.hal_flash_read_byte_buff) refers to hal_flash.o(i.hal_flash_read_byte) for hal_flash_read_byte
    hal_flash.o(i.hal_flash_read_half_word_buff) refers to hal_flash.o(i.hal_flash_read_half_word) for hal_flash_read_half_word
    hal_flash.o(i.hal_flash_read_word_buff) refers to hal_flash.o(i.hal_flash_read_word) for hal_flash_read_word
    hal_flash.o(i.hal_flash_write_halfword_buff) refers to stm32f1xx_hal_flash.o(i.HAL_FLASH_Unlock) for HAL_FLASH_Unlock
    hal_flash.o(i.hal_flash_write_halfword_buff) refers to hal_flash.o(i.hal_flash_read_half_word_buff) for hal_flash_read_half_word_buff
    hal_flash.o(i.hal_flash_write_halfword_buff) refers to hal_flash.o(i.hal_flash_erase) for hal_flash_erase
    hal_flash.o(i.hal_flash_write_halfword_buff) refers to hal_flash.o(i.hal_flash_write_halfword_no_check) for hal_flash_write_halfword_no_check
    hal_flash.o(i.hal_flash_write_halfword_buff) refers to stm32f1xx_hal_flash.o(i.HAL_FLASH_Lock) for HAL_FLASH_Lock
    hal_flash.o(i.hal_flash_write_halfword_buff) refers to hal_flash.o(.bss) for stmFlashBuff
    hal_flash.o(i.hal_flash_write_halfword_no_check) refers to stm32f1xx_hal_flash.o(i.HAL_FLASH_Program) for HAL_FLASH_Program
    hal_spi.o(i.hal_spi1_init) refers to stm32f1xx_hal_spi_ex.o(i.HAL_SPI_Init) for HAL_SPI_Init
    hal_spi.o(i.hal_spi1_init) refers to hal_spi.o(.bss) for spi1Handle
    hal_spi.o(i.hal_spi1_read_byte) refers to hal_spi.o(.bss) for spi1Handle
    hal_spi.o(i.hal_spi1_write_byte) refers to hal_spi.o(.bss) for spi1Handle
    stm32f1xx_hal.o(i.HAL_DeInit) refers to stm32f1xx_hal.o(i.HAL_MspDeInit) for HAL_MspDeInit
    stm32f1xx_hal.o(i.HAL_Delay) refers to stm32f1xx_hal.o(i.HAL_GetTick) for HAL_GetTick
    stm32f1xx_hal.o(i.HAL_Delay) refers to stm32f1xx_hal.o(.data) for uwTickFreq
    stm32f1xx_hal.o(i.HAL_GetTick) refers to stm32f1xx_hal.o(.data) for uwTick
    stm32f1xx_hal.o(i.HAL_GetTickFreq) refers to stm32f1xx_hal.o(.data) for uwTickFreq
    stm32f1xx_hal.o(i.HAL_GetTickPrio) refers to stm32f1xx_hal.o(.data) for uwTickPrio
    stm32f1xx_hal.o(i.HAL_IncTick) refers to stm32f1xx_hal.o(.data) for uwTick
    stm32f1xx_hal.o(i.HAL_Init) refers to stm32f1xx_hal_cortex.o(i.HAL_NVIC_SetPriorityGrouping) for HAL_NVIC_SetPriorityGrouping
    stm32f1xx_hal.o(i.HAL_Init) refers to stm32f1xx_hal.o(i.HAL_InitTick) for HAL_InitTick
    stm32f1xx_hal.o(i.HAL_Init) refers to stm32f1xx_hal.o(i.HAL_MspInit) for HAL_MspInit
    stm32f1xx_hal.o(i.HAL_InitTick) refers to stm32f1xx_hal_cortex.o(i.HAL_SYSTICK_Config) for HAL_SYSTICK_Config
    stm32f1xx_hal.o(i.HAL_InitTick) refers to stm32f1xx_hal_cortex.o(i.HAL_NVIC_SetPriority) for HAL_NVIC_SetPriority
    stm32f1xx_hal.o(i.HAL_InitTick) refers to stm32f1xx_hal.o(.data) for uwTickFreq
    stm32f1xx_hal.o(i.HAL_InitTick) refers to system_stm32f1xx.o(.data) for SystemCoreClock
    stm32f1xx_hal.o(i.HAL_SetTickFreq) refers to stm32f1xx_hal.o(i.HAL_InitTick) for HAL_InitTick
    stm32f1xx_hal.o(i.HAL_SetTickFreq) refers to stm32f1xx_hal.o(.data) for uwTickFreq
    stm32f1xx_hal_adc.o(i.ADC_ConversionStop_Disable) refers to stm32f1xx_hal.o(i.HAL_GetTick) for HAL_GetTick
    stm32f1xx_hal_adc.o(i.ADC_DMAConvCplt) refers to stm32f1xx_hal_adc.o(i.HAL_ADC_ConvCpltCallback) for HAL_ADC_ConvCpltCallback
    stm32f1xx_hal_adc.o(i.ADC_DMAError) refers to stm32f1xx_hal_adc.o(i.HAL_ADC_ErrorCallback) for HAL_ADC_ErrorCallback
    stm32f1xx_hal_adc.o(i.ADC_DMAHalfConvCplt) refers to stm32f1xx_hal_adc.o(i.HAL_ADC_ConvHalfCpltCallback) for HAL_ADC_ConvHalfCpltCallback
    stm32f1xx_hal_adc.o(i.ADC_Enable) refers to stm32f1xx_hal.o(i.HAL_GetTick) for HAL_GetTick
    stm32f1xx_hal_adc.o(i.ADC_Enable) refers to system_stm32f1xx.o(.data) for SystemCoreClock
    stm32f1xx_hal_adc.o(i.HAL_ADC_ConfigChannel) refers to system_stm32f1xx.o(.data) for SystemCoreClock
    stm32f1xx_hal_adc.o(i.HAL_ADC_DeInit) refers to stm32f1xx_hal_adc.o(i.ADC_ConversionStop_Disable) for ADC_ConversionStop_Disable
    stm32f1xx_hal_adc.o(i.HAL_ADC_DeInit) refers to stm32f1xx_hal_adc.o(i.HAL_ADC_MspDeInit) for HAL_ADC_MspDeInit
    stm32f1xx_hal_adc.o(i.HAL_ADC_IRQHandler) refers to stm32f1xx_hal_adc.o(i.HAL_ADC_ConvCpltCallback) for HAL_ADC_ConvCpltCallback
    stm32f1xx_hal_adc.o(i.HAL_ADC_IRQHandler) refers to stm32f1xx_hal_adc_ex.o(i.HAL_ADCEx_InjectedConvCpltCallback) for HAL_ADCEx_InjectedConvCpltCallback
    stm32f1xx_hal_adc.o(i.HAL_ADC_IRQHandler) refers to stm32f1xx_hal_adc.o(i.HAL_ADC_LevelOutOfWindowCallback) for HAL_ADC_LevelOutOfWindowCallback
    stm32f1xx_hal_adc.o(i.HAL_ADC_Init) refers to stm32f1xx_hal_adc.o(i.HAL_ADC_MspInit) for HAL_ADC_MspInit
    stm32f1xx_hal_adc.o(i.HAL_ADC_Init) refers to stm32f1xx_hal_adc.o(i.ADC_ConversionStop_Disable) for ADC_ConversionStop_Disable
    stm32f1xx_hal_adc.o(i.HAL_ADC_PollForConversion) refers to stm32f1xx_hal.o(i.HAL_GetTick) for HAL_GetTick
    stm32f1xx_hal_adc.o(i.HAL_ADC_PollForConversion) refers to stm32f1xx_hal_rcc_ex.o(i.HAL_RCCEx_GetPeriphCLKFreq) for HAL_RCCEx_GetPeriphCLKFreq
    stm32f1xx_hal_adc.o(i.HAL_ADC_PollForConversion) refers to system_stm32f1xx.o(.data) for SystemCoreClock
    stm32f1xx_hal_adc.o(i.HAL_ADC_PollForEvent) refers to stm32f1xx_hal.o(i.HAL_GetTick) for HAL_GetTick
    stm32f1xx_hal_adc.o(i.HAL_ADC_Start) refers to stm32f1xx_hal_adc.o(i.ADC_Enable) for ADC_Enable
    stm32f1xx_hal_adc.o(i.HAL_ADC_Start_DMA) refers to stm32f1xx_hal_adc.o(i.ADC_Enable) for ADC_Enable
    stm32f1xx_hal_adc.o(i.HAL_ADC_Start_DMA) refers to stm32f1xx_hal_dma.o(i.HAL_DMA_Start_IT) for HAL_DMA_Start_IT
    stm32f1xx_hal_adc.o(i.HAL_ADC_Start_DMA) refers to stm32f1xx_hal_adc.o(i.ADC_DMAConvCplt) for ADC_DMAConvCplt
    stm32f1xx_hal_adc.o(i.HAL_ADC_Start_DMA) refers to stm32f1xx_hal_adc.o(i.ADC_DMAHalfConvCplt) for ADC_DMAHalfConvCplt
    stm32f1xx_hal_adc.o(i.HAL_ADC_Start_DMA) refers to stm32f1xx_hal_adc.o(i.ADC_DMAError) for ADC_DMAError
    stm32f1xx_hal_adc.o(i.HAL_ADC_Start_IT) refers to stm32f1xx_hal_adc.o(i.ADC_Enable) for ADC_Enable
    stm32f1xx_hal_adc.o(i.HAL_ADC_Stop) refers to stm32f1xx_hal_adc.o(i.ADC_ConversionStop_Disable) for ADC_ConversionStop_Disable
    stm32f1xx_hal_adc.o(i.HAL_ADC_Stop_DMA) refers to stm32f1xx_hal_adc.o(i.ADC_ConversionStop_Disable) for ADC_ConversionStop_Disable
    stm32f1xx_hal_adc.o(i.HAL_ADC_Stop_DMA) refers to stm32f1xx_hal_dma.o(i.HAL_DMA_Abort) for HAL_DMA_Abort
    stm32f1xx_hal_adc.o(i.HAL_ADC_Stop_IT) refers to stm32f1xx_hal_adc.o(i.ADC_ConversionStop_Disable) for ADC_ConversionStop_Disable
    stm32f1xx_hal_adc_ex.o(i.HAL_ADCEx_Calibration_Start) refers to stm32f1xx_hal_adc.o(i.ADC_ConversionStop_Disable) for ADC_ConversionStop_Disable
    stm32f1xx_hal_adc_ex.o(i.HAL_ADCEx_Calibration_Start) refers to stm32f1xx_hal_rcc_ex.o(i.HAL_RCCEx_GetPeriphCLKFreq) for HAL_RCCEx_GetPeriphCLKFreq
    stm32f1xx_hal_adc_ex.o(i.HAL_ADCEx_Calibration_Start) refers to stm32f1xx_hal_adc.o(i.ADC_Enable) for ADC_Enable
    stm32f1xx_hal_adc_ex.o(i.HAL_ADCEx_Calibration_Start) refers to stm32f1xx_hal.o(i.HAL_GetTick) for HAL_GetTick
    stm32f1xx_hal_adc_ex.o(i.HAL_ADCEx_Calibration_Start) refers to system_stm32f1xx.o(.data) for SystemCoreClock
    stm32f1xx_hal_adc_ex.o(i.HAL_ADCEx_InjectedConfigChannel) refers to system_stm32f1xx.o(.data) for SystemCoreClock
    stm32f1xx_hal_adc_ex.o(i.HAL_ADCEx_InjectedPollForConversion) refers to stm32f1xx_hal.o(i.HAL_GetTick) for HAL_GetTick
    stm32f1xx_hal_adc_ex.o(i.HAL_ADCEx_InjectedPollForConversion) refers to stm32f1xx_hal_rcc_ex.o(i.HAL_RCCEx_GetPeriphCLKFreq) for HAL_RCCEx_GetPeriphCLKFreq
    stm32f1xx_hal_adc_ex.o(i.HAL_ADCEx_InjectedPollForConversion) refers to system_stm32f1xx.o(.data) for SystemCoreClock
    stm32f1xx_hal_adc_ex.o(i.HAL_ADCEx_InjectedStart) refers to stm32f1xx_hal_adc.o(i.ADC_Enable) for ADC_Enable
    stm32f1xx_hal_adc_ex.o(i.HAL_ADCEx_InjectedStart_IT) refers to stm32f1xx_hal_adc.o(i.ADC_Enable) for ADC_Enable
    stm32f1xx_hal_adc_ex.o(i.HAL_ADCEx_InjectedStop) refers to stm32f1xx_hal_adc.o(i.ADC_ConversionStop_Disable) for ADC_ConversionStop_Disable
    stm32f1xx_hal_adc_ex.o(i.HAL_ADCEx_InjectedStop_IT) refers to stm32f1xx_hal_adc.o(i.ADC_ConversionStop_Disable) for ADC_ConversionStop_Disable
    stm32f1xx_hal_adc_ex.o(i.HAL_ADCEx_MultiModeStart_DMA) refers to stm32f1xx_hal_adc.o(i.ADC_Enable) for ADC_Enable
    stm32f1xx_hal_adc_ex.o(i.HAL_ADCEx_MultiModeStart_DMA) refers to stm32f1xx_hal_dma.o(i.HAL_DMA_Start_IT) for HAL_DMA_Start_IT
    stm32f1xx_hal_adc_ex.o(i.HAL_ADCEx_MultiModeStart_DMA) refers to stm32f1xx_hal_adc.o(i.ADC_DMAConvCplt) for ADC_DMAConvCplt
    stm32f1xx_hal_adc_ex.o(i.HAL_ADCEx_MultiModeStart_DMA) refers to stm32f1xx_hal_adc.o(i.ADC_DMAHalfConvCplt) for ADC_DMAHalfConvCplt
    stm32f1xx_hal_adc_ex.o(i.HAL_ADCEx_MultiModeStart_DMA) refers to stm32f1xx_hal_adc.o(i.ADC_DMAError) for ADC_DMAError
    stm32f1xx_hal_adc_ex.o(i.HAL_ADCEx_MultiModeStop_DMA) refers to stm32f1xx_hal_adc.o(i.ADC_ConversionStop_Disable) for ADC_ConversionStop_Disable
    stm32f1xx_hal_adc_ex.o(i.HAL_ADCEx_MultiModeStop_DMA) refers to stm32f1xx_hal_dma.o(i.HAL_DMA_Abort) for HAL_DMA_Abort
    stm32f1xx_hal_can.o(i.CAN_Receive_IT) refers to stm32f1xx_hal_can.o(i.HAL_CAN_RxCpltCallback) for HAL_CAN_RxCpltCallback
    stm32f1xx_hal_can.o(i.CAN_Transmit_IT) refers to stm32f1xx_hal_can.o(i.HAL_CAN_TxCpltCallback) for HAL_CAN_TxCpltCallback
    stm32f1xx_hal_can.o(i.HAL_CAN_DeInit) refers to stm32f1xx_hal_can.o(i.HAL_CAN_MspDeInit) for HAL_CAN_MspDeInit
    stm32f1xx_hal_can.o(i.HAL_CAN_IRQHandler) refers to stm32f1xx_hal_can.o(i.CAN_Transmit_IT) for CAN_Transmit_IT
    stm32f1xx_hal_can.o(i.HAL_CAN_IRQHandler) refers to stm32f1xx_hal_can.o(i.CAN_Receive_IT) for CAN_Receive_IT
    stm32f1xx_hal_can.o(i.HAL_CAN_IRQHandler) refers to stm32f1xx_hal_can.o(i.HAL_CAN_ErrorCallback) for HAL_CAN_ErrorCallback
    stm32f1xx_hal_can.o(i.HAL_CAN_Init) refers to stm32f1xx_hal_can.o(i.HAL_CAN_MspInit) for HAL_CAN_MspInit
    stm32f1xx_hal_can.o(i.HAL_CAN_Init) refers to stm32f1xx_hal.o(i.HAL_GetTick) for HAL_GetTick
    stm32f1xx_hal_can.o(i.HAL_CAN_Receive) refers to stm32f1xx_hal.o(i.HAL_GetTick) for HAL_GetTick
    stm32f1xx_hal_can.o(i.HAL_CAN_Sleep) refers to stm32f1xx_hal.o(i.HAL_GetTick) for HAL_GetTick
    stm32f1xx_hal_can.o(i.HAL_CAN_Transmit) refers to stm32f1xx_hal.o(i.HAL_GetTick) for HAL_GetTick
    stm32f1xx_hal_can.o(i.HAL_CAN_WakeUp) refers to stm32f1xx_hal.o(i.HAL_GetTick) for HAL_GetTick
    stm32f1xx_hal_cortex.o(i.HAL_NVIC_GetPriorityGrouping) refers to stm32f1xx_hal_cortex.o(i.NVIC_GetPriorityGrouping) for NVIC_GetPriorityGrouping
    stm32f1xx_hal_cortex.o(i.HAL_NVIC_SetPriority) refers to stm32f1xx_hal_cortex.o(i.NVIC_GetPriorityGrouping) for NVIC_GetPriorityGrouping
    stm32f1xx_hal_cortex.o(i.HAL_NVIC_SetPriority) refers to stm32f1xx_hal_cortex.o(i.NVIC_SetPriority) for NVIC_SetPriority
    stm32f1xx_hal_cortex.o(i.HAL_SYSTICK_Config) refers to stm32f1xx_hal_cortex.o(i.NVIC_SetPriority) for NVIC_SetPriority
    stm32f1xx_hal_cortex.o(i.HAL_SYSTICK_IRQHandler) refers to stm32f1xx_hal_cortex.o(i.HAL_SYSTICK_Callback) for HAL_SYSTICK_Callback
    stm32f1xx_hal_dma.o(i.HAL_DMA_PollForTransfer) refers to stm32f1xx_hal.o(i.HAL_GetTick) for HAL_GetTick
    stm32f1xx_hal_dma.o(i.HAL_DMA_Start) refers to stm32f1xx_hal_dma.o(i.DMA_SetConfig) for DMA_SetConfig
    stm32f1xx_hal_dma.o(i.HAL_DMA_Start_IT) refers to stm32f1xx_hal_dma.o(i.DMA_SetConfig) for DMA_SetConfig
    stm32f1xx_hal_gpio.o(i.HAL_GPIO_EXTI_IRQHandler) refers to stm32f1xx_hal_gpio.o(i.HAL_GPIO_EXTI_Callback) for HAL_GPIO_EXTI_Callback
    stm32f1xx_hal_iwdg.o(i.HAL_IWDG_Init) refers to stm32f1xx_hal.o(i.HAL_GetTick) for HAL_GetTick
    stm32f1xx_hal_pwr.o(i.HAL_PWR_EnterSTOPMode) refers to stm32f1xx_hal_pwr.o(i.PWR_OverloadWfe) for PWR_OverloadWfe
    stm32f1xx_hal_pwr.o(i.HAL_PWR_PVD_IRQHandler) refers to stm32f1xx_hal_pwr.o(i.HAL_PWR_PVDCallback) for HAL_PWR_PVDCallback
    stm32f1xx_hal_rcc.o(i.HAL_RCC_ClockConfig) refers to stm32f1xx_hal.o(i.HAL_GetTick) for HAL_GetTick
    stm32f1xx_hal_rcc.o(i.HAL_RCC_ClockConfig) refers to stm32f1xx_hal_rcc.o(i.HAL_RCC_GetSysClockFreq) for HAL_RCC_GetSysClockFreq
    stm32f1xx_hal_rcc.o(i.HAL_RCC_ClockConfig) refers to stm32f1xx_hal.o(i.HAL_InitTick) for HAL_InitTick
    stm32f1xx_hal_rcc.o(i.HAL_RCC_ClockConfig) refers to system_stm32f1xx.o(.constdata) for AHBPrescTable
    stm32f1xx_hal_rcc.o(i.HAL_RCC_ClockConfig) refers to system_stm32f1xx.o(.data) for SystemCoreClock
    stm32f1xx_hal_rcc.o(i.HAL_RCC_DeInit) refers to stm32f1xx_hal.o(i.HAL_GetTick) for HAL_GetTick
    stm32f1xx_hal_rcc.o(i.HAL_RCC_DeInit) refers to stm32f1xx_hal.o(i.HAL_InitTick) for HAL_InitTick
    stm32f1xx_hal_rcc.o(i.HAL_RCC_DeInit) refers to system_stm32f1xx.o(.data) for SystemCoreClock
    stm32f1xx_hal_rcc.o(i.HAL_RCC_GetHCLKFreq) refers to system_stm32f1xx.o(.data) for SystemCoreClock
    stm32f1xx_hal_rcc.o(i.HAL_RCC_GetPCLK1Freq) refers to stm32f1xx_hal_rcc.o(i.HAL_RCC_GetHCLKFreq) for HAL_RCC_GetHCLKFreq
    stm32f1xx_hal_rcc.o(i.HAL_RCC_GetPCLK1Freq) refers to system_stm32f1xx.o(.constdata) for APBPrescTable
    stm32f1xx_hal_rcc.o(i.HAL_RCC_GetPCLK2Freq) refers to stm32f1xx_hal_rcc.o(i.HAL_RCC_GetHCLKFreq) for HAL_RCC_GetHCLKFreq
    stm32f1xx_hal_rcc.o(i.HAL_RCC_GetPCLK2Freq) refers to system_stm32f1xx.o(.constdata) for APBPrescTable
    stm32f1xx_hal_rcc.o(i.HAL_RCC_MCOConfig) refers to stm32f1xx_hal_gpio.o(i.HAL_GPIO_Init) for HAL_GPIO_Init
    stm32f1xx_hal_rcc.o(i.HAL_RCC_NMI_IRQHandler) refers to stm32f1xx_hal_rcc.o(i.HAL_RCC_CSSCallback) for HAL_RCC_CSSCallback
    stm32f1xx_hal_rcc.o(i.HAL_RCC_OscConfig) refers to stm32f1xx_hal.o(i.HAL_GetTick) for HAL_GetTick
    stm32f1xx_hal_rcc.o(i.HAL_RCC_OscConfig) refers to stm32f1xx_hal_rcc.o(i.RCC_Delay) for RCC_Delay
    stm32f1xx_hal_rcc.o(i.RCC_Delay) refers to system_stm32f1xx.o(.data) for SystemCoreClock
    stm32f1xx_hal_rcc_ex.o(i.HAL_RCCEx_GetPeriphCLKFreq) refers to stm32f1xx_hal_rcc.o(i.HAL_RCC_GetSysClockFreq) for HAL_RCC_GetSysClockFreq
    stm32f1xx_hal_rcc_ex.o(i.HAL_RCCEx_GetPeriphCLKFreq) refers to stm32f1xx_hal_rcc.o(i.HAL_RCC_GetPCLK2Freq) for HAL_RCC_GetPCLK2Freq
    stm32f1xx_hal_rcc_ex.o(i.HAL_RCCEx_PeriphCLKConfig) refers to stm32f1xx_hal.o(i.HAL_GetTick) for HAL_GetTick
    stm32f1xx_hal_tim.o(i.HAL_TIM_Base_DeInit) refers to stm32f1xx_hal_tim.o(i.HAL_TIM_Base_MspDeInit) for HAL_TIM_Base_MspDeInit
    stm32f1xx_hal_tim.o(i.HAL_TIM_Base_Init) refers to stm32f1xx_hal_tim.o(i.HAL_TIM_Base_MspInit) for HAL_TIM_Base_MspInit
    stm32f1xx_hal_tim.o(i.HAL_TIM_Base_Init) refers to stm32f1xx_hal_tim.o(i.TIM_Base_SetConfig) for TIM_Base_SetConfig
    stm32f1xx_hal_tim.o(i.HAL_TIM_Base_Start_DMA) refers to stm32f1xx_hal_dma.o(i.HAL_DMA_Start_IT) for HAL_DMA_Start_IT
    stm32f1xx_hal_tim.o(i.HAL_TIM_Base_Start_DMA) refers to stm32f1xx_hal_tim.o(i.TIM_DMAPeriodElapsedCplt) for TIM_DMAPeriodElapsedCplt
    stm32f1xx_hal_tim.o(i.HAL_TIM_Base_Start_DMA) refers to stm32f1xx_hal_tim.o(i.TIM_DMAError) for TIM_DMAError
    stm32f1xx_hal_tim.o(i.HAL_TIM_ConfigClockSource) refers to stm32f1xx_hal_tim.o(i.TIM_ETR_SetConfig) for TIM_ETR_SetConfig
    stm32f1xx_hal_tim.o(i.HAL_TIM_ConfigClockSource) refers to stm32f1xx_hal_tim.o(i.TIM_TI1_ConfigInputStage) for TIM_TI1_ConfigInputStage
    stm32f1xx_hal_tim.o(i.HAL_TIM_ConfigClockSource) refers to stm32f1xx_hal_tim.o(i.TIM_ITRx_SetConfig) for TIM_ITRx_SetConfig
    stm32f1xx_hal_tim.o(i.HAL_TIM_ConfigClockSource) refers to stm32f1xx_hal_tim.o(i.TIM_TI2_ConfigInputStage) for TIM_TI2_ConfigInputStage
    stm32f1xx_hal_tim.o(i.HAL_TIM_ConfigOCrefClear) refers to stm32f1xx_hal_tim.o(i.TIM_ETR_SetConfig) for TIM_ETR_SetConfig
    stm32f1xx_hal_tim.o(i.HAL_TIM_DMABurst_ReadStart) refers to stm32f1xx_hal_dma.o(i.HAL_DMA_Start_IT) for HAL_DMA_Start_IT
    stm32f1xx_hal_tim.o(i.HAL_TIM_DMABurst_ReadStart) refers to stm32f1xx_hal_tim.o(i.TIM_DMAPeriodElapsedCplt) for TIM_DMAPeriodElapsedCplt
    stm32f1xx_hal_tim.o(i.HAL_TIM_DMABurst_ReadStart) refers to stm32f1xx_hal_tim.o(i.TIM_DMAError) for TIM_DMAError
    stm32f1xx_hal_tim.o(i.HAL_TIM_DMABurst_ReadStart) refers to stm32f1xx_hal_tim.o(i.TIM_DMACaptureCplt) for TIM_DMACaptureCplt
    stm32f1xx_hal_tim.o(i.HAL_TIM_DMABurst_ReadStart) refers to stm32f1xx_hal_tim_ex.o(i.TIMEx_DMACommutationCplt) for TIMEx_DMACommutationCplt
    stm32f1xx_hal_tim.o(i.HAL_TIM_DMABurst_ReadStart) refers to stm32f1xx_hal_tim.o(i.TIM_DMATriggerCplt) for TIM_DMATriggerCplt
    stm32f1xx_hal_tim.o(i.HAL_TIM_DMABurst_ReadStop) refers to stm32f1xx_hal_dma.o(i.HAL_DMA_Abort) for HAL_DMA_Abort
    stm32f1xx_hal_tim.o(i.HAL_TIM_DMABurst_WriteStart) refers to stm32f1xx_hal_dma.o(i.HAL_DMA_Start_IT) for HAL_DMA_Start_IT
    stm32f1xx_hal_tim.o(i.HAL_TIM_DMABurst_WriteStart) refers to stm32f1xx_hal_tim.o(i.TIM_DMAPeriodElapsedCplt) for TIM_DMAPeriodElapsedCplt
    stm32f1xx_hal_tim.o(i.HAL_TIM_DMABurst_WriteStart) refers to stm32f1xx_hal_tim.o(i.TIM_DMAError) for TIM_DMAError
    stm32f1xx_hal_tim.o(i.HAL_TIM_DMABurst_WriteStart) refers to stm32f1xx_hal_tim.o(i.TIM_DMADelayPulseCplt) for TIM_DMADelayPulseCplt
    stm32f1xx_hal_tim.o(i.HAL_TIM_DMABurst_WriteStart) refers to stm32f1xx_hal_tim_ex.o(i.TIMEx_DMACommutationCplt) for TIMEx_DMACommutationCplt
    stm32f1xx_hal_tim.o(i.HAL_TIM_DMABurst_WriteStart) refers to stm32f1xx_hal_tim.o(i.TIM_DMATriggerCplt) for TIM_DMATriggerCplt
    stm32f1xx_hal_tim.o(i.HAL_TIM_DMABurst_WriteStop) refers to stm32f1xx_hal_dma.o(i.HAL_DMA_Abort) for HAL_DMA_Abort
    stm32f1xx_hal_tim.o(i.HAL_TIM_Encoder_DeInit) refers to stm32f1xx_hal_tim.o(i.HAL_TIM_Encoder_MspDeInit) for HAL_TIM_Encoder_MspDeInit
    stm32f1xx_hal_tim.o(i.HAL_TIM_Encoder_Init) refers to stm32f1xx_hal_tim.o(i.HAL_TIM_Encoder_MspInit) for HAL_TIM_Encoder_MspInit
    stm32f1xx_hal_tim.o(i.HAL_TIM_Encoder_Init) refers to stm32f1xx_hal_tim.o(i.TIM_Base_SetConfig) for TIM_Base_SetConfig
    stm32f1xx_hal_tim.o(i.HAL_TIM_Encoder_Start) refers to stm32f1xx_hal_tim.o(i.TIM_CCxChannelCmd) for TIM_CCxChannelCmd
    stm32f1xx_hal_tim.o(i.HAL_TIM_Encoder_Start_DMA) refers to stm32f1xx_hal_dma.o(i.HAL_DMA_Start_IT) for HAL_DMA_Start_IT
    stm32f1xx_hal_tim.o(i.HAL_TIM_Encoder_Start_DMA) refers to stm32f1xx_hal_tim.o(i.TIM_CCxChannelCmd) for TIM_CCxChannelCmd
    stm32f1xx_hal_tim.o(i.HAL_TIM_Encoder_Start_DMA) refers to stm32f1xx_hal_tim.o(i.TIM_DMACaptureCplt) for TIM_DMACaptureCplt
    stm32f1xx_hal_tim.o(i.HAL_TIM_Encoder_Start_DMA) refers to stm32f1xx_hal_tim.o(i.TIM_DMAError) for TIM_DMAError
    stm32f1xx_hal_tim.o(i.HAL_TIM_Encoder_Start_IT) refers to stm32f1xx_hal_tim.o(i.TIM_CCxChannelCmd) for TIM_CCxChannelCmd
    stm32f1xx_hal_tim.o(i.HAL_TIM_Encoder_Stop) refers to stm32f1xx_hal_tim.o(i.TIM_CCxChannelCmd) for TIM_CCxChannelCmd
    stm32f1xx_hal_tim.o(i.HAL_TIM_Encoder_Stop_DMA) refers to stm32f1xx_hal_tim.o(i.TIM_CCxChannelCmd) for TIM_CCxChannelCmd
    stm32f1xx_hal_tim.o(i.HAL_TIM_Encoder_Stop_IT) refers to stm32f1xx_hal_tim.o(i.TIM_CCxChannelCmd) for TIM_CCxChannelCmd
    stm32f1xx_hal_tim.o(i.HAL_TIM_IC_ConfigChannel) refers to stm32f1xx_hal_tim.o(i.TIM_TI1_SetConfig) for TIM_TI1_SetConfig
    stm32f1xx_hal_tim.o(i.HAL_TIM_IC_ConfigChannel) refers to stm32f1xx_hal_tim.o(i.TIM_TI2_SetConfig) for TIM_TI2_SetConfig
    stm32f1xx_hal_tim.o(i.HAL_TIM_IC_ConfigChannel) refers to stm32f1xx_hal_tim.o(i.TIM_TI3_SetConfig) for TIM_TI3_SetConfig
    stm32f1xx_hal_tim.o(i.HAL_TIM_IC_ConfigChannel) refers to stm32f1xx_hal_tim.o(i.TIM_TI4_SetConfig) for TIM_TI4_SetConfig
    stm32f1xx_hal_tim.o(i.HAL_TIM_IC_DeInit) refers to stm32f1xx_hal_tim.o(i.HAL_TIM_IC_MspDeInit) for HAL_TIM_IC_MspDeInit
    stm32f1xx_hal_tim.o(i.HAL_TIM_IC_Init) refers to stm32f1xx_hal_tim.o(i.HAL_TIM_IC_MspInit) for HAL_TIM_IC_MspInit
    stm32f1xx_hal_tim.o(i.HAL_TIM_IC_Init) refers to stm32f1xx_hal_tim.o(i.TIM_Base_SetConfig) for TIM_Base_SetConfig
    stm32f1xx_hal_tim.o(i.HAL_TIM_IC_Start) refers to stm32f1xx_hal_tim.o(i.TIM_CCxChannelCmd) for TIM_CCxChannelCmd
    stm32f1xx_hal_tim.o(i.HAL_TIM_IC_Start_DMA) refers to stm32f1xx_hal_dma.o(i.HAL_DMA_Start_IT) for HAL_DMA_Start_IT
    stm32f1xx_hal_tim.o(i.HAL_TIM_IC_Start_DMA) refers to stm32f1xx_hal_tim.o(i.TIM_CCxChannelCmd) for TIM_CCxChannelCmd
    stm32f1xx_hal_tim.o(i.HAL_TIM_IC_Start_DMA) refers to stm32f1xx_hal_tim.o(i.TIM_DMACaptureCplt) for TIM_DMACaptureCplt
    stm32f1xx_hal_tim.o(i.HAL_TIM_IC_Start_DMA) refers to stm32f1xx_hal_tim.o(i.TIM_DMAError) for TIM_DMAError
    stm32f1xx_hal_tim.o(i.HAL_TIM_IC_Start_IT) refers to stm32f1xx_hal_tim.o(i.TIM_CCxChannelCmd) for TIM_CCxChannelCmd
    stm32f1xx_hal_tim.o(i.HAL_TIM_IC_Stop) refers to stm32f1xx_hal_tim.o(i.TIM_CCxChannelCmd) for TIM_CCxChannelCmd
    stm32f1xx_hal_tim.o(i.HAL_TIM_IC_Stop_DMA) refers to stm32f1xx_hal_tim.o(i.TIM_CCxChannelCmd) for TIM_CCxChannelCmd
    stm32f1xx_hal_tim.o(i.HAL_TIM_IC_Stop_IT) refers to stm32f1xx_hal_tim.o(i.TIM_CCxChannelCmd) for TIM_CCxChannelCmd
    stm32f1xx_hal_tim.o(i.HAL_TIM_IRQHandler) refers to stm32f1xx_hal_tim.o(i.HAL_TIM_IC_CaptureCallback) for HAL_TIM_IC_CaptureCallback
    stm32f1xx_hal_tim.o(i.HAL_TIM_IRQHandler) refers to stm32f1xx_hal_tim.o(i.HAL_TIM_OC_DelayElapsedCallback) for HAL_TIM_OC_DelayElapsedCallback
    stm32f1xx_hal_tim.o(i.HAL_TIM_IRQHandler) refers to stm32f1xx_hal_tim.o(i.HAL_TIM_PWM_PulseFinishedCallback) for HAL_TIM_PWM_PulseFinishedCallback
    stm32f1xx_hal_tim.o(i.HAL_TIM_IRQHandler) refers to stm32f1xx_hal_tim.o(i.HAL_TIM_PeriodElapsedCallback) for HAL_TIM_PeriodElapsedCallback
    stm32f1xx_hal_tim.o(i.HAL_TIM_IRQHandler) refers to stm32f1xx_hal_tim_ex.o(i.HAL_TIMEx_BreakCallback) for HAL_TIMEx_BreakCallback
    stm32f1xx_hal_tim.o(i.HAL_TIM_IRQHandler) refers to stm32f1xx_hal_tim.o(i.HAL_TIM_TriggerCallback) for HAL_TIM_TriggerCallback
    stm32f1xx_hal_tim.o(i.HAL_TIM_IRQHandler) refers to stm32f1xx_hal_tim_ex.o(i.HAL_TIMEx_CommutationCallback) for HAL_TIMEx_CommutationCallback
    stm32f1xx_hal_tim.o(i.HAL_TIM_OC_ConfigChannel) refers to stm32f1xx_hal_tim.o(i.TIM_OC1_SetConfig) for TIM_OC1_SetConfig
    stm32f1xx_hal_tim.o(i.HAL_TIM_OC_ConfigChannel) refers to stm32f1xx_hal_tim.o(i.TIM_OC2_SetConfig) for TIM_OC2_SetConfig
    stm32f1xx_hal_tim.o(i.HAL_TIM_OC_ConfigChannel) refers to stm32f1xx_hal_tim.o(i.TIM_OC3_SetConfig) for TIM_OC3_SetConfig
    stm32f1xx_hal_tim.o(i.HAL_TIM_OC_ConfigChannel) refers to stm32f1xx_hal_tim.o(i.TIM_OC4_SetConfig) for TIM_OC4_SetConfig
    stm32f1xx_hal_tim.o(i.HAL_TIM_OC_DeInit) refers to stm32f1xx_hal_tim.o(i.HAL_TIM_OC_MspDeInit) for HAL_TIM_OC_MspDeInit
    stm32f1xx_hal_tim.o(i.HAL_TIM_OC_Init) refers to stm32f1xx_hal_tim.o(i.HAL_TIM_OC_MspInit) for HAL_TIM_OC_MspInit
    stm32f1xx_hal_tim.o(i.HAL_TIM_OC_Init) refers to stm32f1xx_hal_tim.o(i.TIM_Base_SetConfig) for TIM_Base_SetConfig
    stm32f1xx_hal_tim.o(i.HAL_TIM_OC_Start) refers to stm32f1xx_hal_tim.o(i.TIM_CCxChannelCmd) for TIM_CCxChannelCmd
    stm32f1xx_hal_tim.o(i.HAL_TIM_OC_Start_DMA) refers to stm32f1xx_hal_dma.o(i.HAL_DMA_Start_IT) for HAL_DMA_Start_IT
    stm32f1xx_hal_tim.o(i.HAL_TIM_OC_Start_DMA) refers to stm32f1xx_hal_tim.o(i.TIM_CCxChannelCmd) for TIM_CCxChannelCmd
    stm32f1xx_hal_tim.o(i.HAL_TIM_OC_Start_DMA) refers to stm32f1xx_hal_tim.o(i.TIM_DMADelayPulseCplt) for TIM_DMADelayPulseCplt
    stm32f1xx_hal_tim.o(i.HAL_TIM_OC_Start_DMA) refers to stm32f1xx_hal_tim.o(i.TIM_DMAError) for TIM_DMAError
    stm32f1xx_hal_tim.o(i.HAL_TIM_OC_Start_IT) refers to stm32f1xx_hal_tim.o(i.TIM_CCxChannelCmd) for TIM_CCxChannelCmd
    stm32f1xx_hal_tim.o(i.HAL_TIM_OC_Stop) refers to stm32f1xx_hal_tim.o(i.TIM_CCxChannelCmd) for TIM_CCxChannelCmd
    stm32f1xx_hal_tim.o(i.HAL_TIM_OC_Stop_DMA) refers to stm32f1xx_hal_tim.o(i.TIM_CCxChannelCmd) for TIM_CCxChannelCmd
    stm32f1xx_hal_tim.o(i.HAL_TIM_OC_Stop_IT) refers to stm32f1xx_hal_tim.o(i.TIM_CCxChannelCmd) for TIM_CCxChannelCmd
    stm32f1xx_hal_tim.o(i.HAL_TIM_OnePulse_ConfigChannel) refers to stm32f1xx_hal_tim.o(i.TIM_OC1_SetConfig) for TIM_OC1_SetConfig
    stm32f1xx_hal_tim.o(i.HAL_TIM_OnePulse_ConfigChannel) refers to stm32f1xx_hal_tim.o(i.TIM_OC2_SetConfig) for TIM_OC2_SetConfig
    stm32f1xx_hal_tim.o(i.HAL_TIM_OnePulse_ConfigChannel) refers to stm32f1xx_hal_tim.o(i.TIM_TI1_SetConfig) for TIM_TI1_SetConfig
    stm32f1xx_hal_tim.o(i.HAL_TIM_OnePulse_ConfigChannel) refers to stm32f1xx_hal_tim.o(i.TIM_TI2_SetConfig) for TIM_TI2_SetConfig
    stm32f1xx_hal_tim.o(i.HAL_TIM_OnePulse_DeInit) refers to stm32f1xx_hal_tim.o(i.HAL_TIM_OnePulse_MspDeInit) for HAL_TIM_OnePulse_MspDeInit
    stm32f1xx_hal_tim.o(i.HAL_TIM_OnePulse_Init) refers to stm32f1xx_hal_tim.o(i.HAL_TIM_OnePulse_MspInit) for HAL_TIM_OnePulse_MspInit
    stm32f1xx_hal_tim.o(i.HAL_TIM_OnePulse_Init) refers to stm32f1xx_hal_tim.o(i.TIM_Base_SetConfig) for TIM_Base_SetConfig
    stm32f1xx_hal_tim.o(i.HAL_TIM_OnePulse_Start) refers to stm32f1xx_hal_tim.o(i.TIM_CCxChannelCmd) for TIM_CCxChannelCmd
    stm32f1xx_hal_tim.o(i.HAL_TIM_OnePulse_Start_IT) refers to stm32f1xx_hal_tim.o(i.TIM_CCxChannelCmd) for TIM_CCxChannelCmd
    stm32f1xx_hal_tim.o(i.HAL_TIM_OnePulse_Stop) refers to stm32f1xx_hal_tim.o(i.TIM_CCxChannelCmd) for TIM_CCxChannelCmd
    stm32f1xx_hal_tim.o(i.HAL_TIM_OnePulse_Stop_IT) refers to stm32f1xx_hal_tim.o(i.TIM_CCxChannelCmd) for TIM_CCxChannelCmd
    stm32f1xx_hal_tim.o(i.HAL_TIM_PWM_ConfigChannel) refers to stm32f1xx_hal_tim.o(i.TIM_OC1_SetConfig) for TIM_OC1_SetConfig
    stm32f1xx_hal_tim.o(i.HAL_TIM_PWM_ConfigChannel) refers to stm32f1xx_hal_tim.o(i.TIM_OC2_SetConfig) for TIM_OC2_SetConfig
    stm32f1xx_hal_tim.o(i.HAL_TIM_PWM_ConfigChannel) refers to stm32f1xx_hal_tim.o(i.TIM_OC3_SetConfig) for TIM_OC3_SetConfig
    stm32f1xx_hal_tim.o(i.HAL_TIM_PWM_ConfigChannel) refers to stm32f1xx_hal_tim.o(i.TIM_OC4_SetConfig) for TIM_OC4_SetConfig
    stm32f1xx_hal_tim.o(i.HAL_TIM_PWM_DeInit) refers to stm32f1xx_hal_tim.o(i.HAL_TIM_PWM_MspDeInit) for HAL_TIM_PWM_MspDeInit
    stm32f1xx_hal_tim.o(i.HAL_TIM_PWM_Init) refers to stm32f1xx_hal_tim.o(i.HAL_TIM_PWM_MspInit) for HAL_TIM_PWM_MspInit
    stm32f1xx_hal_tim.o(i.HAL_TIM_PWM_Init) refers to stm32f1xx_hal_tim.o(i.TIM_Base_SetConfig) for TIM_Base_SetConfig
    stm32f1xx_hal_tim.o(i.HAL_TIM_PWM_Start) refers to stm32f1xx_hal_tim.o(i.TIM_CCxChannelCmd) for TIM_CCxChannelCmd
    stm32f1xx_hal_tim.o(i.HAL_TIM_PWM_Start_DMA) refers to stm32f1xx_hal_dma.o(i.HAL_DMA_Start_IT) for HAL_DMA_Start_IT
    stm32f1xx_hal_tim.o(i.HAL_TIM_PWM_Start_DMA) refers to stm32f1xx_hal_tim.o(i.TIM_CCxChannelCmd) for TIM_CCxChannelCmd
    stm32f1xx_hal_tim.o(i.HAL_TIM_PWM_Start_DMA) refers to stm32f1xx_hal_tim.o(i.TIM_DMADelayPulseCplt) for TIM_DMADelayPulseCplt
    stm32f1xx_hal_tim.o(i.HAL_TIM_PWM_Start_DMA) refers to stm32f1xx_hal_tim.o(i.TIM_DMAError) for TIM_DMAError
    stm32f1xx_hal_tim.o(i.HAL_TIM_PWM_Start_IT) refers to stm32f1xx_hal_tim.o(i.TIM_CCxChannelCmd) for TIM_CCxChannelCmd
    stm32f1xx_hal_tim.o(i.HAL_TIM_PWM_Stop) refers to stm32f1xx_hal_tim.o(i.TIM_CCxChannelCmd) for TIM_CCxChannelCmd
    stm32f1xx_hal_tim.o(i.HAL_TIM_PWM_Stop_DMA) refers to stm32f1xx_hal_tim.o(i.TIM_CCxChannelCmd) for TIM_CCxChannelCmd
    stm32f1xx_hal_tim.o(i.HAL_TIM_PWM_Stop_IT) refers to stm32f1xx_hal_tim.o(i.TIM_CCxChannelCmd) for TIM_CCxChannelCmd
    stm32f1xx_hal_tim.o(i.HAL_TIM_SlaveConfigSynchronization) refers to stm32f1xx_hal_tim.o(i.TIM_SlaveTimer_SetConfig) for TIM_SlaveTimer_SetConfig
    stm32f1xx_hal_tim.o(i.HAL_TIM_SlaveConfigSynchronization_IT) refers to stm32f1xx_hal_tim.o(i.TIM_SlaveTimer_SetConfig) for TIM_SlaveTimer_SetConfig
    stm32f1xx_hal_tim.o(i.TIM_DMACaptureCplt) refers to stm32f1xx_hal_tim.o(i.HAL_TIM_IC_CaptureCallback) for HAL_TIM_IC_CaptureCallback
    stm32f1xx_hal_tim.o(i.TIM_DMADelayPulseCplt) refers to stm32f1xx_hal_tim.o(i.HAL_TIM_PWM_PulseFinishedCallback) for HAL_TIM_PWM_PulseFinishedCallback
    stm32f1xx_hal_tim.o(i.TIM_DMAError) refers to stm32f1xx_hal_tim.o(i.HAL_TIM_ErrorCallback) for HAL_TIM_ErrorCallback
    stm32f1xx_hal_tim.o(i.TIM_DMAPeriodElapsedCplt) refers to stm32f1xx_hal_tim.o(i.HAL_TIM_PeriodElapsedCallback) for HAL_TIM_PeriodElapsedCallback
    stm32f1xx_hal_tim.o(i.TIM_DMATriggerCplt) refers to stm32f1xx_hal_tim.o(i.HAL_TIM_TriggerCallback) for HAL_TIM_TriggerCallback
    stm32f1xx_hal_tim.o(i.TIM_SlaveTimer_SetConfig) refers to stm32f1xx_hal_tim.o(i.TIM_ETR_SetConfig) for TIM_ETR_SetConfig
    stm32f1xx_hal_tim.o(i.TIM_SlaveTimer_SetConfig) refers to stm32f1xx_hal_tim.o(i.TIM_TI1_ConfigInputStage) for TIM_TI1_ConfigInputStage
    stm32f1xx_hal_tim.o(i.TIM_SlaveTimer_SetConfig) refers to stm32f1xx_hal_tim.o(i.TIM_TI2_ConfigInputStage) for TIM_TI2_ConfigInputStage
    stm32f1xx_hal_tim_ex.o(i.HAL_TIMEx_ConfigCommutationEvent_DMA) refers to stm32f1xx_hal_tim_ex.o(i.TIMEx_DMACommutationCplt) for TIMEx_DMACommutationCplt
    stm32f1xx_hal_tim_ex.o(i.HAL_TIMEx_ConfigCommutationEvent_DMA) refers to stm32f1xx_hal_tim.o(i.TIM_DMAError) for TIM_DMAError
    stm32f1xx_hal_tim_ex.o(i.HAL_TIMEx_HallSensor_DeInit) refers to stm32f1xx_hal_tim_ex.o(i.HAL_TIMEx_HallSensor_MspDeInit) for HAL_TIMEx_HallSensor_MspDeInit
    stm32f1xx_hal_tim_ex.o(i.HAL_TIMEx_HallSensor_Init) refers to stm32f1xx_hal_tim_ex.o(i.HAL_TIMEx_HallSensor_MspInit) for HAL_TIMEx_HallSensor_MspInit
    stm32f1xx_hal_tim_ex.o(i.HAL_TIMEx_HallSensor_Init) refers to stm32f1xx_hal_tim.o(i.TIM_Base_SetConfig) for TIM_Base_SetConfig
    stm32f1xx_hal_tim_ex.o(i.HAL_TIMEx_HallSensor_Init) refers to stm32f1xx_hal_tim.o(i.TIM_TI1_SetConfig) for TIM_TI1_SetConfig
    stm32f1xx_hal_tim_ex.o(i.HAL_TIMEx_HallSensor_Init) refers to stm32f1xx_hal_tim.o(i.TIM_OC2_SetConfig) for TIM_OC2_SetConfig
    stm32f1xx_hal_tim_ex.o(i.HAL_TIMEx_HallSensor_Start) refers to stm32f1xx_hal_tim.o(i.TIM_CCxChannelCmd) for TIM_CCxChannelCmd
    stm32f1xx_hal_tim_ex.o(i.HAL_TIMEx_HallSensor_Start_DMA) refers to stm32f1xx_hal_tim.o(i.TIM_CCxChannelCmd) for TIM_CCxChannelCmd
    stm32f1xx_hal_tim_ex.o(i.HAL_TIMEx_HallSensor_Start_DMA) refers to stm32f1xx_hal_dma.o(i.HAL_DMA_Start_IT) for HAL_DMA_Start_IT
    stm32f1xx_hal_tim_ex.o(i.HAL_TIMEx_HallSensor_Start_DMA) refers to stm32f1xx_hal_tim.o(i.TIM_DMACaptureCplt) for TIM_DMACaptureCplt
    stm32f1xx_hal_tim_ex.o(i.HAL_TIMEx_HallSensor_Start_DMA) refers to stm32f1xx_hal_tim.o(i.TIM_DMAError) for TIM_DMAError
    stm32f1xx_hal_tim_ex.o(i.HAL_TIMEx_HallSensor_Start_IT) refers to stm32f1xx_hal_tim.o(i.TIM_CCxChannelCmd) for TIM_CCxChannelCmd
    stm32f1xx_hal_tim_ex.o(i.HAL_TIMEx_HallSensor_Stop) refers to stm32f1xx_hal_tim.o(i.TIM_CCxChannelCmd) for TIM_CCxChannelCmd
    stm32f1xx_hal_tim_ex.o(i.HAL_TIMEx_HallSensor_Stop_DMA) refers to stm32f1xx_hal_tim.o(i.TIM_CCxChannelCmd) for TIM_CCxChannelCmd
    stm32f1xx_hal_tim_ex.o(i.HAL_TIMEx_HallSensor_Stop_IT) refers to stm32f1xx_hal_tim.o(i.TIM_CCxChannelCmd) for TIM_CCxChannelCmd
    stm32f1xx_hal_tim_ex.o(i.HAL_TIMEx_OCN_Start) refers to stm32f1xx_hal_tim_ex.o(i.TIM_CCxNChannelCmd) for TIM_CCxNChannelCmd
    stm32f1xx_hal_tim_ex.o(i.HAL_TIMEx_OCN_Start_DMA) refers to stm32f1xx_hal_dma.o(i.HAL_DMA_Start_IT) for HAL_DMA_Start_IT
    stm32f1xx_hal_tim_ex.o(i.HAL_TIMEx_OCN_Start_DMA) refers to stm32f1xx_hal_tim_ex.o(i.TIM_CCxNChannelCmd) for TIM_CCxNChannelCmd
    stm32f1xx_hal_tim_ex.o(i.HAL_TIMEx_OCN_Start_DMA) refers to stm32f1xx_hal_tim.o(i.TIM_DMADelayPulseCplt) for TIM_DMADelayPulseCplt
    stm32f1xx_hal_tim_ex.o(i.HAL_TIMEx_OCN_Start_DMA) refers to stm32f1xx_hal_tim.o(i.TIM_DMAError) for TIM_DMAError
    stm32f1xx_hal_tim_ex.o(i.HAL_TIMEx_OCN_Start_IT) refers to stm32f1xx_hal_tim_ex.o(i.TIM_CCxNChannelCmd) for TIM_CCxNChannelCmd
    stm32f1xx_hal_tim_ex.o(i.HAL_TIMEx_OCN_Stop) refers to stm32f1xx_hal_tim_ex.o(i.TIM_CCxNChannelCmd) for TIM_CCxNChannelCmd
    stm32f1xx_hal_tim_ex.o(i.HAL_TIMEx_OCN_Stop_DMA) refers to stm32f1xx_hal_tim_ex.o(i.TIM_CCxNChannelCmd) for TIM_CCxNChannelCmd
    stm32f1xx_hal_tim_ex.o(i.HAL_TIMEx_OCN_Stop_IT) refers to stm32f1xx_hal_tim_ex.o(i.TIM_CCxNChannelCmd) for TIM_CCxNChannelCmd
    stm32f1xx_hal_tim_ex.o(i.HAL_TIMEx_OnePulseN_Start) refers to stm32f1xx_hal_tim_ex.o(i.TIM_CCxNChannelCmd) for TIM_CCxNChannelCmd
    stm32f1xx_hal_tim_ex.o(i.HAL_TIMEx_OnePulseN_Start_IT) refers to stm32f1xx_hal_tim_ex.o(i.TIM_CCxNChannelCmd) for TIM_CCxNChannelCmd
    stm32f1xx_hal_tim_ex.o(i.HAL_TIMEx_OnePulseN_Stop) refers to stm32f1xx_hal_tim_ex.o(i.TIM_CCxNChannelCmd) for TIM_CCxNChannelCmd
    stm32f1xx_hal_tim_ex.o(i.HAL_TIMEx_OnePulseN_Stop_IT) refers to stm32f1xx_hal_tim_ex.o(i.TIM_CCxNChannelCmd) for TIM_CCxNChannelCmd
    stm32f1xx_hal_tim_ex.o(i.HAL_TIMEx_PWMN_Start) refers to stm32f1xx_hal_tim_ex.o(i.TIM_CCxNChannelCmd) for TIM_CCxNChannelCmd
    stm32f1xx_hal_tim_ex.o(i.HAL_TIMEx_PWMN_Start_DMA) refers to stm32f1xx_hal_dma.o(i.HAL_DMA_Start_IT) for HAL_DMA_Start_IT
    stm32f1xx_hal_tim_ex.o(i.HAL_TIMEx_PWMN_Start_DMA) refers to stm32f1xx_hal_tim_ex.o(i.TIM_CCxNChannelCmd) for TIM_CCxNChannelCmd
    stm32f1xx_hal_tim_ex.o(i.HAL_TIMEx_PWMN_Start_DMA) refers to stm32f1xx_hal_tim.o(i.TIM_DMADelayPulseCplt) for TIM_DMADelayPulseCplt
    stm32f1xx_hal_tim_ex.o(i.HAL_TIMEx_PWMN_Start_DMA) refers to stm32f1xx_hal_tim.o(i.TIM_DMAError) for TIM_DMAError
    stm32f1xx_hal_tim_ex.o(i.HAL_TIMEx_PWMN_Start_IT) refers to stm32f1xx_hal_tim_ex.o(i.TIM_CCxNChannelCmd) for TIM_CCxNChannelCmd
    stm32f1xx_hal_tim_ex.o(i.HAL_TIMEx_PWMN_Stop) refers to stm32f1xx_hal_tim_ex.o(i.TIM_CCxNChannelCmd) for TIM_CCxNChannelCmd
    stm32f1xx_hal_tim_ex.o(i.HAL_TIMEx_PWMN_Stop_DMA) refers to stm32f1xx_hal_tim_ex.o(i.TIM_CCxNChannelCmd) for TIM_CCxNChannelCmd
    stm32f1xx_hal_tim_ex.o(i.HAL_TIMEx_PWMN_Stop_IT) refers to stm32f1xx_hal_tim_ex.o(i.TIM_CCxNChannelCmd) for TIM_CCxNChannelCmd
    stm32f1xx_hal_tim_ex.o(i.TIMEx_DMACommutationCplt) refers to stm32f1xx_hal_tim_ex.o(i.HAL_TIMEx_CommutationCallback) for HAL_TIMEx_CommutationCallback
    stm32f1xx_hal_uart.o(i.HAL_HalfDuplex_Init) refers to stm32f1xx_hal_uart.o(i.HAL_UART_MspInit) for HAL_UART_MspInit
    stm32f1xx_hal_uart.o(i.HAL_HalfDuplex_Init) refers to stm32f1xx_hal_uart.o(i.UART_SetConfig) for UART_SetConfig
    stm32f1xx_hal_uart.o(i.HAL_LIN_Init) refers to stm32f1xx_hal_uart.o(i.HAL_UART_MspInit) for HAL_UART_MspInit
    stm32f1xx_hal_uart.o(i.HAL_LIN_Init) refers to stm32f1xx_hal_uart.o(i.UART_SetConfig) for UART_SetConfig
    stm32f1xx_hal_uart.o(i.HAL_MultiProcessor_Init) refers to stm32f1xx_hal_uart.o(i.HAL_UART_MspInit) for HAL_UART_MspInit
    stm32f1xx_hal_uart.o(i.HAL_MultiProcessor_Init) refers to stm32f1xx_hal_uart.o(i.UART_SetConfig) for UART_SetConfig
    stm32f1xx_hal_uart.o(i.HAL_UART_Abort) refers to stm32f1xx_hal_dma.o(i.HAL_DMA_Abort) for HAL_DMA_Abort
    stm32f1xx_hal_uart.o(i.HAL_UART_AbortReceive) refers to stm32f1xx_hal_dma.o(i.HAL_DMA_Abort) for HAL_DMA_Abort
    stm32f1xx_hal_uart.o(i.HAL_UART_AbortReceive_IT) refers to stm32f1xx_hal_dma.o(i.HAL_DMA_Abort_IT) for HAL_DMA_Abort_IT
    stm32f1xx_hal_uart.o(i.HAL_UART_AbortReceive_IT) refers to stm32f1xx_hal_uart.o(i.HAL_UART_AbortReceiveCpltCallback) for HAL_UART_AbortReceiveCpltCallback
    stm32f1xx_hal_uart.o(i.HAL_UART_AbortReceive_IT) refers to stm32f1xx_hal_uart.o(i.UART_DMARxOnlyAbortCallback) for UART_DMARxOnlyAbortCallback
    stm32f1xx_hal_uart.o(i.HAL_UART_AbortTransmit) refers to stm32f1xx_hal_dma.o(i.HAL_DMA_Abort) for HAL_DMA_Abort
    stm32f1xx_hal_uart.o(i.HAL_UART_AbortTransmit_IT) refers to stm32f1xx_hal_dma.o(i.HAL_DMA_Abort_IT) for HAL_DMA_Abort_IT
    stm32f1xx_hal_uart.o(i.HAL_UART_AbortTransmit_IT) refers to stm32f1xx_hal_uart.o(i.HAL_UART_AbortTransmitCpltCallback) for HAL_UART_AbortTransmitCpltCallback
    stm32f1xx_hal_uart.o(i.HAL_UART_AbortTransmit_IT) refers to stm32f1xx_hal_uart.o(i.UART_DMATxOnlyAbortCallback) for UART_DMATxOnlyAbortCallback
    stm32f1xx_hal_uart.o(i.HAL_UART_Abort_IT) refers to stm32f1xx_hal_dma.o(i.HAL_DMA_Abort_IT) for HAL_DMA_Abort_IT
    stm32f1xx_hal_uart.o(i.HAL_UART_Abort_IT) refers to stm32f1xx_hal_uart.o(i.HAL_UART_AbortCpltCallback) for HAL_UART_AbortCpltCallback
    stm32f1xx_hal_uart.o(i.HAL_UART_Abort_IT) refers to stm32f1xx_hal_uart.o(i.UART_DMATxAbortCallback) for UART_DMATxAbortCallback
    stm32f1xx_hal_uart.o(i.HAL_UART_Abort_IT) refers to stm32f1xx_hal_uart.o(i.UART_DMARxAbortCallback) for UART_DMARxAbortCallback
    stm32f1xx_hal_uart.o(i.HAL_UART_DMAStop) refers to stm32f1xx_hal_dma.o(i.HAL_DMA_Abort) for HAL_DMA_Abort
    stm32f1xx_hal_uart.o(i.HAL_UART_DMAStop) refers to stm32f1xx_hal_uart.o(i.UART_EndTxTransfer) for UART_EndTxTransfer
    stm32f1xx_hal_uart.o(i.HAL_UART_DMAStop) refers to stm32f1xx_hal_uart.o(i.UART_EndRxTransfer) for UART_EndRxTransfer
    stm32f1xx_hal_uart.o(i.HAL_UART_DeInit) refers to stm32f1xx_hal_uart.o(i.HAL_UART_MspDeInit) for HAL_UART_MspDeInit
    stm32f1xx_hal_uart.o(i.HAL_UART_IRQHandler) refers to stm32f1xx_hal_uart.o(i.UART_Receive_IT) for UART_Receive_IT
    stm32f1xx_hal_uart.o(i.HAL_UART_IRQHandler) refers to stm32f1xx_hal_uart.o(i.UART_EndRxTransfer) for UART_EndRxTransfer
    stm32f1xx_hal_uart.o(i.HAL_UART_IRQHandler) refers to stm32f1xx_hal_dma.o(i.HAL_DMA_Abort_IT) for HAL_DMA_Abort_IT
    stm32f1xx_hal_uart.o(i.HAL_UART_IRQHandler) refers to stm32f1xx_hal_uart.o(i.HAL_UART_ErrorCallback) for HAL_UART_ErrorCallback
    stm32f1xx_hal_uart.o(i.HAL_UART_IRQHandler) refers to stm32f1xx_hal_uart.o(i.UART_Transmit_IT) for UART_Transmit_IT
    stm32f1xx_hal_uart.o(i.HAL_UART_IRQHandler) refers to stm32f1xx_hal_uart.o(i.UART_EndTransmit_IT) for UART_EndTransmit_IT
    stm32f1xx_hal_uart.o(i.HAL_UART_IRQHandler) refers to stm32f1xx_hal_uart.o(i.UART_DMAAbortOnError) for UART_DMAAbortOnError
    stm32f1xx_hal_uart.o(i.HAL_UART_Init) refers to stm32f1xx_hal_uart.o(i.HAL_UART_MspInit) for HAL_UART_MspInit
    stm32f1xx_hal_uart.o(i.HAL_UART_Init) refers to stm32f1xx_hal_uart.o(i.UART_SetConfig) for UART_SetConfig
    stm32f1xx_hal_uart.o(i.HAL_UART_Receive) refers to stm32f1xx_hal.o(i.HAL_GetTick) for HAL_GetTick
    stm32f1xx_hal_uart.o(i.HAL_UART_Receive) refers to stm32f1xx_hal_uart.o(i.UART_WaitOnFlagUntilTimeout) for UART_WaitOnFlagUntilTimeout
    stm32f1xx_hal_uart.o(i.HAL_UART_Receive_DMA) refers to stm32f1xx_hal_dma.o(i.HAL_DMA_Start_IT) for HAL_DMA_Start_IT
    stm32f1xx_hal_uart.o(i.HAL_UART_Receive_DMA) refers to stm32f1xx_hal_uart.o(i.UART_DMAReceiveCplt) for UART_DMAReceiveCplt
    stm32f1xx_hal_uart.o(i.HAL_UART_Receive_DMA) refers to stm32f1xx_hal_uart.o(i.UART_DMARxHalfCplt) for UART_DMARxHalfCplt
    stm32f1xx_hal_uart.o(i.HAL_UART_Receive_DMA) refers to stm32f1xx_hal_uart.o(i.UART_DMAError) for UART_DMAError
    stm32f1xx_hal_uart.o(i.HAL_UART_Transmit) refers to stm32f1xx_hal.o(i.HAL_GetTick) for HAL_GetTick
    stm32f1xx_hal_uart.o(i.HAL_UART_Transmit) refers to stm32f1xx_hal_uart.o(i.UART_WaitOnFlagUntilTimeout) for UART_WaitOnFlagUntilTimeout
    stm32f1xx_hal_uart.o(i.HAL_UART_Transmit_DMA) refers to stm32f1xx_hal_dma.o(i.HAL_DMA_Start_IT) for HAL_DMA_Start_IT
    stm32f1xx_hal_uart.o(i.HAL_UART_Transmit_DMA) refers to stm32f1xx_hal_uart.o(i.UART_DMATransmitCplt) for UART_DMATransmitCplt
    stm32f1xx_hal_uart.o(i.HAL_UART_Transmit_DMA) refers to stm32f1xx_hal_uart.o(i.UART_DMATxHalfCplt) for UART_DMATxHalfCplt
    stm32f1xx_hal_uart.o(i.HAL_UART_Transmit_DMA) refers to stm32f1xx_hal_uart.o(i.UART_DMAError) for UART_DMAError
    stm32f1xx_hal_uart.o(i.UART_DMAAbortOnError) refers to stm32f1xx_hal_uart.o(i.HAL_UART_ErrorCallback) for HAL_UART_ErrorCallback
    stm32f1xx_hal_uart.o(i.UART_DMAError) refers to stm32f1xx_hal_uart.o(i.UART_EndTxTransfer) for UART_EndTxTransfer
    stm32f1xx_hal_uart.o(i.UART_DMAError) refers to stm32f1xx_hal_uart.o(i.UART_EndRxTransfer) for UART_EndRxTransfer
    stm32f1xx_hal_uart.o(i.UART_DMAError) refers to stm32f1xx_hal_uart.o(i.HAL_UART_ErrorCallback) for HAL_UART_ErrorCallback
    stm32f1xx_hal_uart.o(i.UART_DMAReceiveCplt) refers to stm32f1xx_hal_uart.o(i.HAL_UART_RxCpltCallback) for HAL_UART_RxCpltCallback
    stm32f1xx_hal_uart.o(i.UART_DMARxAbortCallback) refers to stm32f1xx_hal_uart.o(i.HAL_UART_AbortCpltCallback) for HAL_UART_AbortCpltCallback
    stm32f1xx_hal_uart.o(i.UART_DMARxHalfCplt) refers to stm32f1xx_hal_uart.o(i.HAL_UART_RxHalfCpltCallback) for HAL_UART_RxHalfCpltCallback
    stm32f1xx_hal_uart.o(i.UART_DMARxOnlyAbortCallback) refers to stm32f1xx_hal_uart.o(i.HAL_UART_AbortReceiveCpltCallback) for HAL_UART_AbortReceiveCpltCallback
    stm32f1xx_hal_uart.o(i.UART_DMATransmitCplt) refers to stm32f1xx_hal_uart.o(i.HAL_UART_TxCpltCallback) for HAL_UART_TxCpltCallback
    stm32f1xx_hal_uart.o(i.UART_DMATxAbortCallback) refers to stm32f1xx_hal_uart.o(i.HAL_UART_AbortCpltCallback) for HAL_UART_AbortCpltCallback
    stm32f1xx_hal_uart.o(i.UART_DMATxHalfCplt) refers to stm32f1xx_hal_uart.o(i.HAL_UART_TxHalfCpltCallback) for HAL_UART_TxHalfCpltCallback
    stm32f1xx_hal_uart.o(i.UART_DMATxOnlyAbortCallback) refers to stm32f1xx_hal_uart.o(i.HAL_UART_AbortTransmitCpltCallback) for HAL_UART_AbortTransmitCpltCallback
    stm32f1xx_hal_uart.o(i.UART_EndTransmit_IT) refers to stm32f1xx_hal_uart.o(i.HAL_UART_TxCpltCallback) for HAL_UART_TxCpltCallback
    stm32f1xx_hal_uart.o(i.UART_Receive_IT) refers to stm32f1xx_hal_uart.o(i.HAL_UART_RxCpltCallback) for HAL_UART_RxCpltCallback
    stm32f1xx_hal_uart.o(i.UART_SetConfig) refers to stm32f1xx_hal_rcc.o(i.HAL_RCC_GetPCLK2Freq) for HAL_RCC_GetPCLK2Freq
    stm32f1xx_hal_uart.o(i.UART_SetConfig) refers to stm32f1xx_hal_rcc.o(i.HAL_RCC_GetPCLK1Freq) for HAL_RCC_GetPCLK1Freq
    stm32f1xx_hal_uart.o(i.UART_WaitOnFlagUntilTimeout) refers to stm32f1xx_hal.o(i.HAL_GetTick) for HAL_GetTick
    stm32f1xx_hal_usart.o(i.HAL_USART_Abort) refers to stm32f1xx_hal_dma.o(i.HAL_DMA_Abort) for HAL_DMA_Abort
    stm32f1xx_hal_usart.o(i.HAL_USART_Abort_IT) refers to stm32f1xx_hal_dma.o(i.HAL_DMA_Abort_IT) for HAL_DMA_Abort_IT
    stm32f1xx_hal_usart.o(i.HAL_USART_Abort_IT) refers to stm32f1xx_hal_usart.o(i.HAL_USART_AbortCpltCallback) for HAL_USART_AbortCpltCallback
    stm32f1xx_hal_usart.o(i.HAL_USART_Abort_IT) refers to stm32f1xx_hal_usart.o(i.USART_DMATxAbortCallback) for USART_DMATxAbortCallback
    stm32f1xx_hal_usart.o(i.HAL_USART_Abort_IT) refers to stm32f1xx_hal_usart.o(i.USART_DMARxAbortCallback) for USART_DMARxAbortCallback
    stm32f1xx_hal_usart.o(i.HAL_USART_DMAStop) refers to stm32f1xx_hal_usart.o(i.USART_EndTxTransfer) for USART_EndTxTransfer
    stm32f1xx_hal_usart.o(i.HAL_USART_DMAStop) refers to stm32f1xx_hal_dma.o(i.HAL_DMA_Abort) for HAL_DMA_Abort
    stm32f1xx_hal_usart.o(i.HAL_USART_DMAStop) refers to stm32f1xx_hal_usart.o(i.USART_EndRxTransfer) for USART_EndRxTransfer
    stm32f1xx_hal_usart.o(i.HAL_USART_DeInit) refers to stm32f1xx_hal_usart.o(i.HAL_USART_MspDeInit) for HAL_USART_MspDeInit
    stm32f1xx_hal_usart.o(i.HAL_USART_IRQHandler) refers to stm32f1xx_hal_usart.o(i.USART_Receive_IT) for USART_Receive_IT
    stm32f1xx_hal_usart.o(i.HAL_USART_IRQHandler) refers to stm32f1xx_hal_usart.o(i.USART_TransmitReceive_IT) for USART_TransmitReceive_IT
    stm32f1xx_hal_usart.o(i.HAL_USART_IRQHandler) refers to stm32f1xx_hal_usart.o(i.USART_EndRxTransfer) for USART_EndRxTransfer
    stm32f1xx_hal_usart.o(i.HAL_USART_IRQHandler) refers to stm32f1xx_hal_dma.o(i.HAL_DMA_Abort_IT) for HAL_DMA_Abort_IT
    stm32f1xx_hal_usart.o(i.HAL_USART_IRQHandler) refers to stm32f1xx_hal_usart.o(i.HAL_USART_ErrorCallback) for HAL_USART_ErrorCallback
    stm32f1xx_hal_usart.o(i.HAL_USART_IRQHandler) refers to stm32f1xx_hal_usart.o(i.USART_Transmit_IT) for USART_Transmit_IT
    stm32f1xx_hal_usart.o(i.HAL_USART_IRQHandler) refers to stm32f1xx_hal_usart.o(i.USART_EndTransmit_IT) for USART_EndTransmit_IT
    stm32f1xx_hal_usart.o(i.HAL_USART_IRQHandler) refers to stm32f1xx_hal_usart.o(i.USART_DMAAbortOnError) for USART_DMAAbortOnError
    stm32f1xx_hal_usart.o(i.HAL_USART_Init) refers to stm32f1xx_hal_usart.o(i.HAL_USART_MspInit) for HAL_USART_MspInit
    stm32f1xx_hal_usart.o(i.HAL_USART_Init) refers to stm32f1xx_hal_usart.o(i.USART_SetConfig) for USART_SetConfig
    stm32f1xx_hal_usart.o(i.HAL_USART_Receive) refers to stm32f1xx_hal.o(i.HAL_GetTick) for HAL_GetTick
    stm32f1xx_hal_usart.o(i.HAL_USART_Receive) refers to stm32f1xx_hal_usart.o(i.USART_WaitOnFlagUntilTimeout) for USART_WaitOnFlagUntilTimeout
    stm32f1xx_hal_usart.o(i.HAL_USART_Receive_DMA) refers to stm32f1xx_hal_dma.o(i.HAL_DMA_Start_IT) for HAL_DMA_Start_IT
    stm32f1xx_hal_usart.o(i.HAL_USART_Receive_DMA) refers to stm32f1xx_hal_usart.o(i.USART_DMAReceiveCplt) for USART_DMAReceiveCplt
    stm32f1xx_hal_usart.o(i.HAL_USART_Receive_DMA) refers to stm32f1xx_hal_usart.o(i.USART_DMARxHalfCplt) for USART_DMARxHalfCplt
    stm32f1xx_hal_usart.o(i.HAL_USART_Receive_DMA) refers to stm32f1xx_hal_usart.o(i.USART_DMAError) for USART_DMAError
    stm32f1xx_hal_usart.o(i.HAL_USART_Transmit) refers to stm32f1xx_hal.o(i.HAL_GetTick) for HAL_GetTick
    stm32f1xx_hal_usart.o(i.HAL_USART_Transmit) refers to stm32f1xx_hal_usart.o(i.USART_WaitOnFlagUntilTimeout) for USART_WaitOnFlagUntilTimeout
    stm32f1xx_hal_usart.o(i.HAL_USART_TransmitReceive) refers to stm32f1xx_hal.o(i.HAL_GetTick) for HAL_GetTick
    stm32f1xx_hal_usart.o(i.HAL_USART_TransmitReceive) refers to stm32f1xx_hal_usart.o(i.USART_WaitOnFlagUntilTimeout) for USART_WaitOnFlagUntilTimeout
    stm32f1xx_hal_usart.o(i.HAL_USART_TransmitReceive_DMA) refers to stm32f1xx_hal_dma.o(i.HAL_DMA_Start_IT) for HAL_DMA_Start_IT
    stm32f1xx_hal_usart.o(i.HAL_USART_TransmitReceive_DMA) refers to stm32f1xx_hal_usart.o(i.USART_DMAReceiveCplt) for USART_DMAReceiveCplt
    stm32f1xx_hal_usart.o(i.HAL_USART_TransmitReceive_DMA) refers to stm32f1xx_hal_usart.o(i.USART_DMARxHalfCplt) for USART_DMARxHalfCplt
    stm32f1xx_hal_usart.o(i.HAL_USART_TransmitReceive_DMA) refers to stm32f1xx_hal_usart.o(i.USART_DMATransmitCplt) for USART_DMATransmitCplt
    stm32f1xx_hal_usart.o(i.HAL_USART_TransmitReceive_DMA) refers to stm32f1xx_hal_usart.o(i.USART_DMATxHalfCplt) for USART_DMATxHalfCplt
    stm32f1xx_hal_usart.o(i.HAL_USART_TransmitReceive_DMA) refers to stm32f1xx_hal_usart.o(i.USART_DMAError) for USART_DMAError
    stm32f1xx_hal_usart.o(i.HAL_USART_Transmit_DMA) refers to stm32f1xx_hal_dma.o(i.HAL_DMA_Start_IT) for HAL_DMA_Start_IT
    stm32f1xx_hal_usart.o(i.HAL_USART_Transmit_DMA) refers to stm32f1xx_hal_usart.o(i.USART_DMATransmitCplt) for USART_DMATransmitCplt
    stm32f1xx_hal_usart.o(i.HAL_USART_Transmit_DMA) refers to stm32f1xx_hal_usart.o(i.USART_DMATxHalfCplt) for USART_DMATxHalfCplt
    stm32f1xx_hal_usart.o(i.HAL_USART_Transmit_DMA) refers to stm32f1xx_hal_usart.o(i.USART_DMAError) for USART_DMAError
    stm32f1xx_hal_usart.o(i.USART_DMAAbortOnError) refers to stm32f1xx_hal_usart.o(i.HAL_USART_ErrorCallback) for HAL_USART_ErrorCallback
    stm32f1xx_hal_usart.o(i.USART_DMAError) refers to stm32f1xx_hal_usart.o(i.USART_EndTxTransfer) for USART_EndTxTransfer
    stm32f1xx_hal_usart.o(i.USART_DMAError) refers to stm32f1xx_hal_usart.o(i.USART_EndRxTransfer) for USART_EndRxTransfer
    stm32f1xx_hal_usart.o(i.USART_DMAError) refers to stm32f1xx_hal_usart.o(i.HAL_USART_ErrorCallback) for HAL_USART_ErrorCallback
    stm32f1xx_hal_usart.o(i.USART_DMAReceiveCplt) refers to stm32f1xx_hal_usart.o(i.HAL_USART_RxCpltCallback) for HAL_USART_RxCpltCallback
    stm32f1xx_hal_usart.o(i.USART_DMAReceiveCplt) refers to stm32f1xx_hal_usart.o(i.HAL_USART_TxRxCpltCallback) for HAL_USART_TxRxCpltCallback
    stm32f1xx_hal_usart.o(i.USART_DMARxAbortCallback) refers to stm32f1xx_hal_usart.o(i.HAL_USART_AbortCpltCallback) for HAL_USART_AbortCpltCallback
    stm32f1xx_hal_usart.o(i.USART_DMARxHalfCplt) refers to stm32f1xx_hal_usart.o(i.HAL_USART_RxHalfCpltCallback) for HAL_USART_RxHalfCpltCallback
    stm32f1xx_hal_usart.o(i.USART_DMATransmitCplt) refers to stm32f1xx_hal_usart.o(i.HAL_USART_TxCpltCallback) for HAL_USART_TxCpltCallback
    stm32f1xx_hal_usart.o(i.USART_DMATxAbortCallback) refers to stm32f1xx_hal_usart.o(i.HAL_USART_AbortCpltCallback) for HAL_USART_AbortCpltCallback
    stm32f1xx_hal_usart.o(i.USART_DMATxHalfCplt) refers to stm32f1xx_hal_usart.o(i.HAL_USART_TxHalfCpltCallback) for HAL_USART_TxHalfCpltCallback
    stm32f1xx_hal_usart.o(i.USART_EndTransmit_IT) refers to stm32f1xx_hal_usart.o(i.HAL_USART_TxCpltCallback) for HAL_USART_TxCpltCallback
    stm32f1xx_hal_usart.o(i.USART_Receive_IT) refers to stm32f1xx_hal_usart.o(i.HAL_USART_RxCpltCallback) for HAL_USART_RxCpltCallback
    stm32f1xx_hal_usart.o(i.USART_SetConfig) refers to stm32f1xx_hal_rcc.o(i.HAL_RCC_GetPCLK2Freq) for HAL_RCC_GetPCLK2Freq
    stm32f1xx_hal_usart.o(i.USART_SetConfig) refers to stm32f1xx_hal_rcc.o(i.HAL_RCC_GetPCLK1Freq) for HAL_RCC_GetPCLK1Freq
    stm32f1xx_hal_usart.o(i.USART_TransmitReceive_IT) refers to stm32f1xx_hal_usart.o(i.HAL_USART_TxRxCpltCallback) for HAL_USART_TxRxCpltCallback
    stm32f1xx_hal_usart.o(i.USART_WaitOnFlagUntilTimeout) refers to stm32f1xx_hal.o(i.HAL_GetTick) for HAL_GetTick
    stm32f1xx_hal_flash.o(i.FLASH_Program_HalfWord) refers to stm32f1xx_hal_flash.o(.bss) for pFlash
    stm32f1xx_hal_flash.o(i.FLASH_SetErrorCode) refers to stm32f1xx_hal_flash.o(.bss) for pFlash
    stm32f1xx_hal_flash.o(i.FLASH_WaitForLastOperation) refers to stm32f1xx_hal.o(i.HAL_GetTick) for HAL_GetTick
    stm32f1xx_hal_flash.o(i.FLASH_WaitForLastOperation) refers to stm32f1xx_hal_flash.o(i.FLASH_SetErrorCode) for FLASH_SetErrorCode
    stm32f1xx_hal_flash.o(i.HAL_FLASH_GetError) refers to stm32f1xx_hal_flash.o(.bss) for pFlash
    stm32f1xx_hal_flash.o(i.HAL_FLASH_IRQHandler) refers to stm32f1xx_hal_flash.o(i.FLASH_SetErrorCode) for FLASH_SetErrorCode
    stm32f1xx_hal_flash.o(i.HAL_FLASH_IRQHandler) refers to stm32f1xx_hal_flash.o(i.HAL_FLASH_OperationErrorCallback) for HAL_FLASH_OperationErrorCallback
    stm32f1xx_hal_flash.o(i.HAL_FLASH_IRQHandler) refers to stm32f1xx_hal_flash.o(i.HAL_FLASH_EndOfOperationCallback) for HAL_FLASH_EndOfOperationCallback
    stm32f1xx_hal_flash.o(i.HAL_FLASH_IRQHandler) refers to stm32f1xx_hal_flash_ex.o(i.FLASH_PageErase) for FLASH_PageErase
    stm32f1xx_hal_flash.o(i.HAL_FLASH_IRQHandler) refers to stm32f1xx_hal_flash.o(i.FLASH_Program_HalfWord) for FLASH_Program_HalfWord
    stm32f1xx_hal_flash.o(i.HAL_FLASH_IRQHandler) refers to stm32f1xx_hal_flash.o(.bss) for pFlash
    stm32f1xx_hal_flash.o(i.HAL_FLASH_OB_Launch) refers to stm32f1xx_hal_cortex.o(i.HAL_NVIC_SystemReset) for HAL_NVIC_SystemReset
    stm32f1xx_hal_flash.o(i.HAL_FLASH_Program) refers to stm32f1xx_hal_flash.o(i.FLASH_WaitForLastOperation) for FLASH_WaitForLastOperation
    stm32f1xx_hal_flash.o(i.HAL_FLASH_Program) refers to llushr.o(.text) for __aeabi_llsr
    stm32f1xx_hal_flash.o(i.HAL_FLASH_Program) refers to stm32f1xx_hal_flash.o(i.FLASH_Program_HalfWord) for FLASH_Program_HalfWord
    stm32f1xx_hal_flash.o(i.HAL_FLASH_Program) refers to stm32f1xx_hal_flash.o(.bss) for pFlash
    stm32f1xx_hal_flash.o(i.HAL_FLASH_Program_IT) refers to stm32f1xx_hal_flash.o(i.FLASH_Program_HalfWord) for FLASH_Program_HalfWord
    stm32f1xx_hal_flash.o(i.HAL_FLASH_Program_IT) refers to stm32f1xx_hal_flash.o(.bss) for pFlash
    stm32f1xx_hal_flash_ex.o(i.FLASH_MassErase) refers to stm32f1xx_hal_flash.o(.bss) for pFlash
    stm32f1xx_hal_flash_ex.o(i.FLASH_OB_DisableWRP) refers to stm32f1xx_hal_flash_ex.o(i.FLASH_OB_GetWRP) for FLASH_OB_GetWRP
    stm32f1xx_hal_flash_ex.o(i.FLASH_OB_DisableWRP) refers to stm32f1xx_hal_flash.o(i.FLASH_WaitForLastOperation) for FLASH_WaitForLastOperation
    stm32f1xx_hal_flash_ex.o(i.FLASH_OB_DisableWRP) refers to stm32f1xx_hal_flash_ex.o(i.HAL_FLASHEx_OBErase) for HAL_FLASHEx_OBErase
    stm32f1xx_hal_flash_ex.o(i.FLASH_OB_DisableWRP) refers to stm32f1xx_hal_flash.o(.bss) for pFlash
    stm32f1xx_hal_flash_ex.o(i.FLASH_OB_EnableWRP) refers to stm32f1xx_hal_flash_ex.o(i.FLASH_OB_GetWRP) for FLASH_OB_GetWRP
    stm32f1xx_hal_flash_ex.o(i.FLASH_OB_EnableWRP) refers to stm32f1xx_hal_flash.o(i.FLASH_WaitForLastOperation) for FLASH_WaitForLastOperation
    stm32f1xx_hal_flash_ex.o(i.FLASH_OB_EnableWRP) refers to stm32f1xx_hal_flash_ex.o(i.HAL_FLASHEx_OBErase) for HAL_FLASHEx_OBErase
    stm32f1xx_hal_flash_ex.o(i.FLASH_OB_EnableWRP) refers to stm32f1xx_hal_flash.o(.bss) for pFlash
    stm32f1xx_hal_flash_ex.o(i.FLASH_OB_ProgramData) refers to stm32f1xx_hal_flash.o(i.FLASH_WaitForLastOperation) for FLASH_WaitForLastOperation
    stm32f1xx_hal_flash_ex.o(i.FLASH_OB_ProgramData) refers to stm32f1xx_hal_flash.o(.bss) for pFlash
    stm32f1xx_hal_flash_ex.o(i.FLASH_OB_RDP_LevelConfig) refers to stm32f1xx_hal_flash.o(i.FLASH_WaitForLastOperation) for FLASH_WaitForLastOperation
    stm32f1xx_hal_flash_ex.o(i.FLASH_OB_RDP_LevelConfig) refers to stm32f1xx_hal_flash.o(.bss) for pFlash
    stm32f1xx_hal_flash_ex.o(i.FLASH_OB_UserConfig) refers to stm32f1xx_hal_flash.o(i.FLASH_WaitForLastOperation) for FLASH_WaitForLastOperation
    stm32f1xx_hal_flash_ex.o(i.FLASH_OB_UserConfig) refers to stm32f1xx_hal_flash.o(.bss) for pFlash
    stm32f1xx_hal_flash_ex.o(i.FLASH_PageErase) refers to stm32f1xx_hal_flash.o(.bss) for pFlash
    stm32f1xx_hal_flash_ex.o(i.HAL_FLASHEx_Erase) refers to stm32f1xx_hal_flash.o(i.FLASH_WaitForLastOperation) for FLASH_WaitForLastOperation
    stm32f1xx_hal_flash_ex.o(i.HAL_FLASHEx_Erase) refers to stm32f1xx_hal_flash_ex.o(i.FLASH_MassErase) for FLASH_MassErase
    stm32f1xx_hal_flash_ex.o(i.HAL_FLASHEx_Erase) refers to stm32f1xx_hal_flash_ex.o(i.FLASH_PageErase) for FLASH_PageErase
    stm32f1xx_hal_flash_ex.o(i.HAL_FLASHEx_Erase) refers to stm32f1xx_hal_flash.o(.bss) for pFlash
    stm32f1xx_hal_flash_ex.o(i.HAL_FLASHEx_Erase_IT) refers to stm32f1xx_hal_flash_ex.o(i.FLASH_MassErase) for FLASH_MassErase
    stm32f1xx_hal_flash_ex.o(i.HAL_FLASHEx_Erase_IT) refers to stm32f1xx_hal_flash_ex.o(i.FLASH_PageErase) for FLASH_PageErase
    stm32f1xx_hal_flash_ex.o(i.HAL_FLASHEx_Erase_IT) refers to stm32f1xx_hal_flash.o(.bss) for pFlash
    stm32f1xx_hal_flash_ex.o(i.HAL_FLASHEx_OBErase) refers to stm32f1xx_hal_flash_ex.o(i.FLASH_OB_GetRDP) for FLASH_OB_GetRDP
    stm32f1xx_hal_flash_ex.o(i.HAL_FLASHEx_OBErase) refers to stm32f1xx_hal_flash.o(i.FLASH_WaitForLastOperation) for FLASH_WaitForLastOperation
    stm32f1xx_hal_flash_ex.o(i.HAL_FLASHEx_OBErase) refers to stm32f1xx_hal_flash_ex.o(i.FLASH_OB_RDP_LevelConfig) for FLASH_OB_RDP_LevelConfig
    stm32f1xx_hal_flash_ex.o(i.HAL_FLASHEx_OBErase) refers to stm32f1xx_hal_flash.o(.bss) for pFlash
    stm32f1xx_hal_flash_ex.o(i.HAL_FLASHEx_OBGetConfig) refers to stm32f1xx_hal_flash_ex.o(i.FLASH_OB_GetWRP) for FLASH_OB_GetWRP
    stm32f1xx_hal_flash_ex.o(i.HAL_FLASHEx_OBGetConfig) refers to stm32f1xx_hal_flash_ex.o(i.FLASH_OB_GetRDP) for FLASH_OB_GetRDP
    stm32f1xx_hal_flash_ex.o(i.HAL_FLASHEx_OBGetConfig) refers to stm32f1xx_hal_flash_ex.o(i.FLASH_OB_GetUser) for FLASH_OB_GetUser
    stm32f1xx_hal_flash_ex.o(i.HAL_FLASHEx_OBProgram) refers to stm32f1xx_hal_flash_ex.o(i.FLASH_OB_EnableWRP) for FLASH_OB_EnableWRP
    stm32f1xx_hal_flash_ex.o(i.HAL_FLASHEx_OBProgram) refers to stm32f1xx_hal_flash_ex.o(i.FLASH_OB_DisableWRP) for FLASH_OB_DisableWRP
    stm32f1xx_hal_flash_ex.o(i.HAL_FLASHEx_OBProgram) refers to stm32f1xx_hal_flash_ex.o(i.FLASH_OB_RDP_LevelConfig) for FLASH_OB_RDP_LevelConfig
    stm32f1xx_hal_flash_ex.o(i.HAL_FLASHEx_OBProgram) refers to stm32f1xx_hal_flash_ex.o(i.FLASH_OB_UserConfig) for FLASH_OB_UserConfig
    stm32f1xx_hal_flash_ex.o(i.HAL_FLASHEx_OBProgram) refers to stm32f1xx_hal_flash_ex.o(i.FLASH_OB_ProgramData) for FLASH_OB_ProgramData
    stm32f1xx_hal_flash_ex.o(i.HAL_FLASHEx_OBProgram) refers to stm32f1xx_hal_flash.o(.bss) for pFlash
    system_stm32f1xx.o(i.SystemCoreClockUpdate) refers to system_stm32f1xx.o(.data) for SystemCoreClock
    system_stm32f1xx.o(i.SystemCoreClockUpdate) refers to system_stm32f1xx.o(.constdata) for AHBPrescTable
    startup_stm32f103xe.o(RESET) refers to startup_stm32f103xe.o(STACK) for __initial_sp
    startup_stm32f103xe.o(RESET) refers to startup_stm32f103xe.o(.text) for Reset_Handler
    startup_stm32f103xe.o(RESET) refers to hal_mcu.o(i.NMI_Handler) for NMI_Handler
    startup_stm32f103xe.o(RESET) refers to hal_mcu.o(i.HardFault_Handler) for HardFault_Handler
    startup_stm32f103xe.o(RESET) refers to hal_mcu.o(i.SVC_Handler) for SVC_Handler
    startup_stm32f103xe.o(RESET) refers to hal_mcu.o(i.PendSV_Handler) for PendSV_Handler
    startup_stm32f103xe.o(RESET) refers to hal_mcu.o(i.SysTick_Handler) for SysTick_Handler
    startup_stm32f103xe.o(RESET) refers to hal_can.o(i.USB_HP_CAN1_TX_IRQHandler) for USB_HP_CAN1_TX_IRQHandler
    startup_stm32f103xe.o(RESET) refers to hal_can.o(i.USB_LP_CAN1_RX0_IRQHandler) for USB_LP_CAN1_RX0_IRQHandler
    startup_stm32f103xe.o(RESET) refers to hal_can.o(i.CAN1_RX1_IRQHandler) for CAN1_RX1_IRQHandler
    startup_stm32f103xe.o(RESET) refers to hal_can.o(i.CAN1_SCE_IRQHandler) for CAN1_SCE_IRQHandler
    startup_stm32f103xe.o(RESET) refers to hal_timer.o(i.TIM7_IRQHandler) for TIM7_IRQHandler
    startup_stm32f103xe.o(.text) refers to system_stm32f1xx.o(i.SystemInit) for SystemInit
    startup_stm32f103xe.o(.text) refers to entry.o(.ARM.Collect$$$$00000000) for __main
    stm32f1xx_hal_spi.o(i.HAL_SPI_Abort) refers to stm32f1xx_hal_dma.o(i.HAL_DMA_Abort) for HAL_DMA_Abort
    stm32f1xx_hal_spi.o(i.HAL_SPI_Abort) refers to system_stm32f1xx.o(.data) for SystemCoreClock
    stm32f1xx_hal_spi.o(i.HAL_SPI_Abort) refers to stm32f1xx_hal_spi.o(i.SPI_AbortTx_ISR) for SPI_AbortTx_ISR
    stm32f1xx_hal_spi.o(i.HAL_SPI_Abort) refers to stm32f1xx_hal_spi.o(i.SPI_AbortRx_ISR) for SPI_AbortRx_ISR
    stm32f1xx_hal_spi.o(i.HAL_SPI_Abort_IT) refers to stm32f1xx_hal_dma.o(i.HAL_DMA_Abort_IT) for HAL_DMA_Abort_IT
    stm32f1xx_hal_spi.o(i.HAL_SPI_Abort_IT) refers to stm32f1xx_hal_spi.o(i.HAL_SPI_AbortCpltCallback) for HAL_SPI_AbortCpltCallback
    stm32f1xx_hal_spi.o(i.HAL_SPI_Abort_IT) refers to stm32f1xx_hal_spi.o(i.SPI_AbortTx_ISR) for SPI_AbortTx_ISR
    stm32f1xx_hal_spi.o(i.HAL_SPI_Abort_IT) refers to stm32f1xx_hal_spi.o(i.SPI_AbortRx_ISR) for SPI_AbortRx_ISR
    stm32f1xx_hal_spi.o(i.HAL_SPI_Abort_IT) refers to stm32f1xx_hal_spi.o(i.SPI_DMATxAbortCallback) for SPI_DMATxAbortCallback
    stm32f1xx_hal_spi.o(i.HAL_SPI_Abort_IT) refers to stm32f1xx_hal_spi.o(i.SPI_DMARxAbortCallback) for SPI_DMARxAbortCallback
    stm32f1xx_hal_spi.o(i.HAL_SPI_DMAStop) refers to stm32f1xx_hal_dma.o(i.HAL_DMA_Abort) for HAL_DMA_Abort
    stm32f1xx_hal_spi.o(i.HAL_SPI_DeInit) refers to stm32f1xx_hal_spi.o(i.HAL_SPI_MspDeInit) for HAL_SPI_MspDeInit
    stm32f1xx_hal_spi.o(i.HAL_SPI_IRQHandler) refers to stm32f1xx_hal_dma.o(i.HAL_DMA_Abort_IT) for HAL_DMA_Abort_IT
    stm32f1xx_hal_spi.o(i.HAL_SPI_IRQHandler) refers to stm32f1xx_hal_spi.o(i.HAL_SPI_ErrorCallback) for HAL_SPI_ErrorCallback
    stm32f1xx_hal_spi.o(i.HAL_SPI_IRQHandler) refers to stm32f1xx_hal_spi.o(i.SPI_DMAAbortOnError) for SPI_DMAAbortOnError
    stm32f1xx_hal_spi.o(i.HAL_SPI_Init) refers to stm32f1xx_hal_spi.o(i.HAL_SPI_MspInit) for HAL_SPI_MspInit
    stm32f1xx_hal_spi.o(i.HAL_SPI_Receive) refers to stm32f1xx_hal_spi.o(i.HAL_SPI_TransmitReceive) for HAL_SPI_TransmitReceive
    stm32f1xx_hal_spi.o(i.HAL_SPI_Receive) refers to stm32f1xx_hal.o(i.HAL_GetTick) for HAL_GetTick
    stm32f1xx_hal_spi.o(i.HAL_SPI_Receive) refers to stm32f1xx_hal_spi.o(i.SPI_WaitFlagStateUntilTimeout) for SPI_WaitFlagStateUntilTimeout
    stm32f1xx_hal_spi.o(i.HAL_SPI_Receive) refers to stm32f1xx_hal_spi_ex.o(i.SPI_ISCRCErrorValid) for SPI_ISCRCErrorValid
    stm32f1xx_hal_spi.o(i.HAL_SPI_Receive_DMA) refers to stm32f1xx_hal_spi.o(i.HAL_SPI_TransmitReceive_DMA) for HAL_SPI_TransmitReceive_DMA
    stm32f1xx_hal_spi.o(i.HAL_SPI_Receive_DMA) refers to stm32f1xx_hal_dma.o(i.HAL_DMA_Start_IT) for HAL_DMA_Start_IT
    stm32f1xx_hal_spi.o(i.HAL_SPI_Receive_DMA) refers to stm32f1xx_hal_spi.o(i.SPI_DMAHalfReceiveCplt) for SPI_DMAHalfReceiveCplt
    stm32f1xx_hal_spi.o(i.HAL_SPI_Receive_DMA) refers to stm32f1xx_hal_spi.o(i.SPI_DMAReceiveCplt) for SPI_DMAReceiveCplt
    stm32f1xx_hal_spi.o(i.HAL_SPI_Receive_DMA) refers to stm32f1xx_hal_spi.o(i.SPI_DMAError) for SPI_DMAError
    stm32f1xx_hal_spi.o(i.HAL_SPI_Receive_IT) refers to stm32f1xx_hal_spi.o(i.HAL_SPI_TransmitReceive_IT) for HAL_SPI_TransmitReceive_IT
    stm32f1xx_hal_spi.o(i.HAL_SPI_Receive_IT) refers to stm32f1xx_hal_spi.o(i.SPI_RxISR_16BIT) for SPI_RxISR_16BIT
    stm32f1xx_hal_spi.o(i.HAL_SPI_Receive_IT) refers to stm32f1xx_hal_spi.o(i.SPI_RxISR_8BIT) for SPI_RxISR_8BIT
    stm32f1xx_hal_spi.o(i.HAL_SPI_Transmit) refers to stm32f1xx_hal.o(i.HAL_GetTick) for HAL_GetTick
    stm32f1xx_hal_spi.o(i.HAL_SPI_Transmit) refers to stm32f1xx_hal_spi.o(i.SPI_WaitFlagStateUntilTimeout) for SPI_WaitFlagStateUntilTimeout
    stm32f1xx_hal_spi.o(i.HAL_SPI_Transmit) refers to stm32f1xx_hal_spi.o(i.SPI_CheckFlag_BSY) for SPI_CheckFlag_BSY
    stm32f1xx_hal_spi.o(i.HAL_SPI_TransmitReceive) refers to stm32f1xx_hal.o(i.HAL_GetTick) for HAL_GetTick
    stm32f1xx_hal_spi.o(i.HAL_SPI_TransmitReceive) refers to stm32f1xx_hal_spi.o(i.SPI_WaitFlagStateUntilTimeout) for SPI_WaitFlagStateUntilTimeout
    stm32f1xx_hal_spi.o(i.HAL_SPI_TransmitReceive) refers to stm32f1xx_hal_spi_ex.o(i.SPI_ISCRCErrorValid) for SPI_ISCRCErrorValid
    stm32f1xx_hal_spi.o(i.HAL_SPI_TransmitReceive) refers to stm32f1xx_hal_spi.o(i.SPI_CheckFlag_BSY) for SPI_CheckFlag_BSY
    stm32f1xx_hal_spi.o(i.HAL_SPI_TransmitReceive_DMA) refers to stm32f1xx_hal_dma.o(i.HAL_DMA_Start_IT) for HAL_DMA_Start_IT
    stm32f1xx_hal_spi.o(i.HAL_SPI_TransmitReceive_DMA) refers to stm32f1xx_hal_spi.o(i.SPI_DMAHalfReceiveCplt) for SPI_DMAHalfReceiveCplt
    stm32f1xx_hal_spi.o(i.HAL_SPI_TransmitReceive_DMA) refers to stm32f1xx_hal_spi.o(i.SPI_DMAReceiveCplt) for SPI_DMAReceiveCplt
    stm32f1xx_hal_spi.o(i.HAL_SPI_TransmitReceive_DMA) refers to stm32f1xx_hal_spi.o(i.SPI_DMAHalfTransmitReceiveCplt) for SPI_DMAHalfTransmitReceiveCplt
    stm32f1xx_hal_spi.o(i.HAL_SPI_TransmitReceive_DMA) refers to stm32f1xx_hal_spi.o(i.SPI_DMATransmitReceiveCplt) for SPI_DMATransmitReceiveCplt
    stm32f1xx_hal_spi.o(i.HAL_SPI_TransmitReceive_DMA) refers to stm32f1xx_hal_spi.o(i.SPI_DMAError) for SPI_DMAError
    stm32f1xx_hal_spi.o(i.HAL_SPI_TransmitReceive_IT) refers to stm32f1xx_hal_spi.o(i.SPI_2linesRxISR_16BIT) for SPI_2linesRxISR_16BIT
    stm32f1xx_hal_spi.o(i.HAL_SPI_TransmitReceive_IT) refers to stm32f1xx_hal_spi.o(i.SPI_2linesTxISR_16BIT) for SPI_2linesTxISR_16BIT
    stm32f1xx_hal_spi.o(i.HAL_SPI_TransmitReceive_IT) refers to stm32f1xx_hal_spi.o(i.SPI_2linesRxISR_8BIT) for SPI_2linesRxISR_8BIT
    stm32f1xx_hal_spi.o(i.HAL_SPI_TransmitReceive_IT) refers to stm32f1xx_hal_spi.o(i.SPI_2linesTxISR_8BIT) for SPI_2linesTxISR_8BIT
    stm32f1xx_hal_spi.o(i.HAL_SPI_Transmit_DMA) refers to stm32f1xx_hal_dma.o(i.HAL_DMA_Start_IT) for HAL_DMA_Start_IT
    stm32f1xx_hal_spi.o(i.HAL_SPI_Transmit_DMA) refers to stm32f1xx_hal_spi.o(i.SPI_DMAHalfTransmitCplt) for SPI_DMAHalfTransmitCplt
    stm32f1xx_hal_spi.o(i.HAL_SPI_Transmit_DMA) refers to stm32f1xx_hal_spi.o(i.SPI_DMATransmitCplt) for SPI_DMATransmitCplt
    stm32f1xx_hal_spi.o(i.HAL_SPI_Transmit_DMA) refers to stm32f1xx_hal_spi.o(i.SPI_DMAError) for SPI_DMAError
    stm32f1xx_hal_spi.o(i.HAL_SPI_Transmit_IT) refers to stm32f1xx_hal_spi.o(i.SPI_TxISR_16BIT) for SPI_TxISR_16BIT
    stm32f1xx_hal_spi.o(i.HAL_SPI_Transmit_IT) refers to stm32f1xx_hal_spi.o(i.SPI_TxISR_8BIT) for SPI_TxISR_8BIT
    stm32f1xx_hal_spi.o(i.SPI_2linesRxISR_16BIT) refers to stm32f1xx_hal_spi.o(i.SPI_CloseRxTx_ISR) for SPI_CloseRxTx_ISR
    stm32f1xx_hal_spi.o(i.SPI_2linesRxISR_16BIT) refers to stm32f1xx_hal_spi.o(i.SPI_2linesRxISR_16BITCRC) for SPI_2linesRxISR_16BITCRC
    stm32f1xx_hal_spi.o(i.SPI_2linesRxISR_16BITCRC) refers to stm32f1xx_hal_spi.o(i.SPI_CloseRxTx_ISR) for SPI_CloseRxTx_ISR
    stm32f1xx_hal_spi.o(i.SPI_2linesRxISR_8BIT) refers to stm32f1xx_hal_spi.o(i.SPI_CloseRxTx_ISR) for SPI_CloseRxTx_ISR
    stm32f1xx_hal_spi.o(i.SPI_2linesRxISR_8BIT) refers to stm32f1xx_hal_spi.o(i.SPI_2linesRxISR_8BITCRC) for SPI_2linesRxISR_8BITCRC
    stm32f1xx_hal_spi.o(i.SPI_2linesRxISR_8BITCRC) refers to stm32f1xx_hal_spi.o(i.SPI_CloseRxTx_ISR) for SPI_CloseRxTx_ISR
    stm32f1xx_hal_spi.o(i.SPI_2linesTxISR_16BIT) refers to stm32f1xx_hal_spi.o(i.SPI_CloseRxTx_ISR) for SPI_CloseRxTx_ISR
    stm32f1xx_hal_spi.o(i.SPI_2linesTxISR_8BIT) refers to stm32f1xx_hal_spi.o(i.SPI_CloseRxTx_ISR) for SPI_CloseRxTx_ISR
    stm32f1xx_hal_spi.o(i.SPI_AbortRx_ISR) refers to system_stm32f1xx.o(.data) for SystemCoreClock
    stm32f1xx_hal_spi.o(i.SPI_CheckFlag_BSY) refers to stm32f1xx_hal_spi.o(i.SPI_WaitFlagStateUntilTimeout) for SPI_WaitFlagStateUntilTimeout
    stm32f1xx_hal_spi.o(i.SPI_CloseRxTx_ISR) refers to stm32f1xx_hal.o(i.HAL_GetTick) for HAL_GetTick
    stm32f1xx_hal_spi.o(i.SPI_CloseRxTx_ISR) refers to stm32f1xx_hal_spi.o(i.SPI_CheckFlag_BSY) for SPI_CheckFlag_BSY
    stm32f1xx_hal_spi.o(i.SPI_CloseRxTx_ISR) refers to stm32f1xx_hal_spi_ex.o(i.SPI_ISCRCErrorValid) for SPI_ISCRCErrorValid
    stm32f1xx_hal_spi.o(i.SPI_CloseRxTx_ISR) refers to stm32f1xx_hal_spi.o(i.HAL_SPI_ErrorCallback) for HAL_SPI_ErrorCallback
    stm32f1xx_hal_spi.o(i.SPI_CloseRxTx_ISR) refers to stm32f1xx_hal_spi.o(i.HAL_SPI_RxCpltCallback) for HAL_SPI_RxCpltCallback
    stm32f1xx_hal_spi.o(i.SPI_CloseRxTx_ISR) refers to stm32f1xx_hal_spi.o(i.HAL_SPI_TxRxCpltCallback) for HAL_SPI_TxRxCpltCallback
    stm32f1xx_hal_spi.o(i.SPI_CloseRxTx_ISR) refers to system_stm32f1xx.o(.data) for SystemCoreClock
    stm32f1xx_hal_spi.o(i.SPI_CloseRx_ISR) refers to stm32f1xx_hal_spi_ex.o(i.SPI_ISCRCErrorValid) for SPI_ISCRCErrorValid
    stm32f1xx_hal_spi.o(i.SPI_CloseRx_ISR) refers to stm32f1xx_hal_spi.o(i.HAL_SPI_ErrorCallback) for HAL_SPI_ErrorCallback
    stm32f1xx_hal_spi.o(i.SPI_CloseRx_ISR) refers to stm32f1xx_hal_spi.o(i.HAL_SPI_RxCpltCallback) for HAL_SPI_RxCpltCallback
    stm32f1xx_hal_spi.o(i.SPI_CloseTx_ISR) refers to stm32f1xx_hal.o(i.HAL_GetTick) for HAL_GetTick
    stm32f1xx_hal_spi.o(i.SPI_CloseTx_ISR) refers to stm32f1xx_hal_spi.o(i.SPI_CheckFlag_BSY) for SPI_CheckFlag_BSY
    stm32f1xx_hal_spi.o(i.SPI_CloseTx_ISR) refers to stm32f1xx_hal_spi.o(i.HAL_SPI_ErrorCallback) for HAL_SPI_ErrorCallback
    stm32f1xx_hal_spi.o(i.SPI_CloseTx_ISR) refers to stm32f1xx_hal_spi.o(i.HAL_SPI_TxCpltCallback) for HAL_SPI_TxCpltCallback
    stm32f1xx_hal_spi.o(i.SPI_CloseTx_ISR) refers to system_stm32f1xx.o(.data) for SystemCoreClock
    stm32f1xx_hal_spi.o(i.SPI_DMAAbortOnError) refers to stm32f1xx_hal_spi.o(i.HAL_SPI_ErrorCallback) for HAL_SPI_ErrorCallback
    stm32f1xx_hal_spi.o(i.SPI_DMAError) refers to stm32f1xx_hal_spi.o(i.HAL_SPI_ErrorCallback) for HAL_SPI_ErrorCallback
    stm32f1xx_hal_spi.o(i.SPI_DMAHalfReceiveCplt) refers to stm32f1xx_hal_spi.o(i.HAL_SPI_RxHalfCpltCallback) for HAL_SPI_RxHalfCpltCallback
    stm32f1xx_hal_spi.o(i.SPI_DMAHalfTransmitCplt) refers to stm32f1xx_hal_spi.o(i.HAL_SPI_TxHalfCpltCallback) for HAL_SPI_TxHalfCpltCallback
    stm32f1xx_hal_spi.o(i.SPI_DMAHalfTransmitReceiveCplt) refers to stm32f1xx_hal_spi.o(i.HAL_SPI_TxRxHalfCpltCallback) for HAL_SPI_TxRxHalfCpltCallback
    stm32f1xx_hal_spi.o(i.SPI_DMAReceiveCplt) refers to stm32f1xx_hal.o(i.HAL_GetTick) for HAL_GetTick
    stm32f1xx_hal_spi.o(i.SPI_DMAReceiveCplt) refers to stm32f1xx_hal_spi.o(i.SPI_WaitFlagStateUntilTimeout) for SPI_WaitFlagStateUntilTimeout
    stm32f1xx_hal_spi.o(i.SPI_DMAReceiveCplt) refers to stm32f1xx_hal_spi_ex.o(i.SPI_ISCRCErrorValid) for SPI_ISCRCErrorValid
    stm32f1xx_hal_spi.o(i.SPI_DMAReceiveCplt) refers to stm32f1xx_hal_spi.o(i.HAL_SPI_ErrorCallback) for HAL_SPI_ErrorCallback
    stm32f1xx_hal_spi.o(i.SPI_DMAReceiveCplt) refers to stm32f1xx_hal_spi.o(i.HAL_SPI_RxCpltCallback) for HAL_SPI_RxCpltCallback
    stm32f1xx_hal_spi.o(i.SPI_DMARxAbortCallback) refers to stm32f1xx_hal_spi.o(i.HAL_SPI_AbortCpltCallback) for HAL_SPI_AbortCpltCallback
    stm32f1xx_hal_spi.o(i.SPI_DMATransmitCplt) refers to stm32f1xx_hal.o(i.HAL_GetTick) for HAL_GetTick
    stm32f1xx_hal_spi.o(i.SPI_DMATransmitCplt) refers to stm32f1xx_hal_spi.o(i.SPI_CheckFlag_BSY) for SPI_CheckFlag_BSY
    stm32f1xx_hal_spi.o(i.SPI_DMATransmitCplt) refers to stm32f1xx_hal_spi.o(i.HAL_SPI_ErrorCallback) for HAL_SPI_ErrorCallback
    stm32f1xx_hal_spi.o(i.SPI_DMATransmitCplt) refers to stm32f1xx_hal_spi.o(i.HAL_SPI_TxCpltCallback) for HAL_SPI_TxCpltCallback
    stm32f1xx_hal_spi.o(i.SPI_DMATransmitReceiveCplt) refers to stm32f1xx_hal.o(i.HAL_GetTick) for HAL_GetTick
    stm32f1xx_hal_spi.o(i.SPI_DMATransmitReceiveCplt) refers to stm32f1xx_hal_spi.o(i.SPI_WaitFlagStateUntilTimeout) for SPI_WaitFlagStateUntilTimeout
    stm32f1xx_hal_spi.o(i.SPI_DMATransmitReceiveCplt) refers to stm32f1xx_hal_spi.o(i.SPI_CheckFlag_BSY) for SPI_CheckFlag_BSY
    stm32f1xx_hal_spi.o(i.SPI_DMATransmitReceiveCplt) refers to stm32f1xx_hal_spi_ex.o(i.SPI_ISCRCErrorValid) for SPI_ISCRCErrorValid
    stm32f1xx_hal_spi.o(i.SPI_DMATransmitReceiveCplt) refers to stm32f1xx_hal_spi.o(i.HAL_SPI_ErrorCallback) for HAL_SPI_ErrorCallback
    stm32f1xx_hal_spi.o(i.SPI_DMATransmitReceiveCplt) refers to stm32f1xx_hal_spi.o(i.HAL_SPI_TxRxCpltCallback) for HAL_SPI_TxRxCpltCallback
    stm32f1xx_hal_spi.o(i.SPI_DMATxAbortCallback) refers to stm32f1xx_hal_spi.o(i.HAL_SPI_AbortCpltCallback) for HAL_SPI_AbortCpltCallback
    stm32f1xx_hal_spi.o(i.SPI_DMATxAbortCallback) refers to system_stm32f1xx.o(.data) for SystemCoreClock
    stm32f1xx_hal_spi.o(i.SPI_RxISR_16BIT) refers to stm32f1xx_hal_spi.o(i.SPI_CloseRx_ISR) for SPI_CloseRx_ISR
    stm32f1xx_hal_spi.o(i.SPI_RxISR_16BIT) refers to stm32f1xx_hal_spi.o(i.SPI_RxISR_16BITCRC) for SPI_RxISR_16BITCRC
    stm32f1xx_hal_spi.o(i.SPI_RxISR_16BITCRC) refers to stm32f1xx_hal_spi.o(i.SPI_CloseRx_ISR) for SPI_CloseRx_ISR
    stm32f1xx_hal_spi.o(i.SPI_RxISR_8BIT) refers to stm32f1xx_hal_spi.o(i.SPI_CloseRx_ISR) for SPI_CloseRx_ISR
    stm32f1xx_hal_spi.o(i.SPI_RxISR_8BIT) refers to stm32f1xx_hal_spi.o(i.SPI_RxISR_8BITCRC) for SPI_RxISR_8BITCRC
    stm32f1xx_hal_spi.o(i.SPI_RxISR_8BITCRC) refers to stm32f1xx_hal_spi.o(i.SPI_CloseRx_ISR) for SPI_CloseRx_ISR
    stm32f1xx_hal_spi.o(i.SPI_TxISR_16BIT) refers to stm32f1xx_hal_spi.o(i.SPI_CloseTx_ISR) for SPI_CloseTx_ISR
    stm32f1xx_hal_spi.o(i.SPI_TxISR_8BIT) refers to stm32f1xx_hal_spi.o(i.SPI_CloseTx_ISR) for SPI_CloseTx_ISR
    stm32f1xx_hal_spi.o(i.SPI_WaitFlagStateUntilTimeout) refers to stm32f1xx_hal.o(i.HAL_GetTick) for HAL_GetTick
    stm32f1xx_hal_spi_ex.o(i.HAL_SPI_Init) refers to stm32f1xx_hal_spi.o(i.HAL_SPI_MspInit) for HAL_SPI_MspInit
    stm32f1xx_hal_spi_ex.o(i.HAL_SPI_Init) refers to stm32f1xx_hal_spi_ex.o(.data) for uCRCErrorWorkaroundCheck
    stm32f1xx_hal_spi_ex.o(i.SPI_ISCRCErrorValid) refers to stm32f1xx_hal_spi_ex.o(.data) for uCRCErrorWorkaroundCheck
    main.o(i.main) refers to hal_mcu.o(i.hal_mcu_common_init) for hal_mcu_common_init
    main.o(i.main) refers to os_heap.o(i.os_heap_init) for os_heap_init
    main.o(i.main) refers to os_task.o(i.os_task_tick_remap) for os_task_tick_remap
    main.o(i.main) refers to hal_mcu.o(i.hal_systick_update_callback_register) for hal_systick_update_callback_register
    main.o(i.main) refers to drv_print.o(i.drv_print_start) for drv_print_start
    main.o(i.main) refers to drv_ex_flash.o(i.drv_ex_flash_start) for drv_ex_flash_start
    main.o(i.main) refers to printf5.o(i.__0printf$5) for __2printf
    main.o(i.main) refers to drv_key.o(i.drv_key_start) for drv_key_start
    main.o(i.main) refers to drv_led.o(i.drv_led_start) for drv_led_start
    main.o(i.main) refers to drv_can.o(i.drv_can_start) for drv_can_start
    main.o(i.main) refers to flighter_batt_protocol.o(i.f_b_protocol_create) for f_b_protocol_create
    main.o(i.main) refers to can_task.o(i.can_task_create) for can_task_create
    main.o(i.main) refers to bms_task.o(i.bms_task_create) for bms_task_create
    main.o(i.main) refers to hal_mcu.o(i.hal_get_sys_freq) for hal_get_sys_freq
    main.o(i.main) refers to os_task.o(i.os_task_main) for os_task_main
    main.o(i.main) refers to hal_mcu.o(i.hal_get_tick) for hal_get_tick
    main.o(i.main) refers to os_timer.o(i.os_timer_run) for os_timer_run
    bms_task.o(i.bms_task_create) refers to co_key.o(i.key_object_create) for key_object_create
    bms_task.o(i.bms_task_create) refers to drv_key.o(i.drv_key_scan_callback_register) for drv_key_scan_callback_register
    bms_task.o(i.bms_task_create) refers to os_task.o(i.os_task_create) for os_task_create
    bms_task.o(i.bms_task_create) refers to printf5.o(i.__0printf$5) for __2printf
    bms_task.o(i.bms_task_create) refers to drv_key.o(i.drv_key1_get_status) for drv_key1_get_status
    bms_task.o(i.bms_task_create) refers to bms_task.o(.data) for key1Handle
    bms_task.o(i.bms_task_create) refers to bms_task.o(i.key1_scan) for key1_scan
    bms_task.o(i.bms_task_create) refers to bms_task.o(i.bms_task_main) for bms_task_main
    bms_task.o(i.bms_task_main) refers to co_key.o(i.key_object_read) for key_object_read
    bms_task.o(i.bms_task_main) refers to drv_led.o(i.drv_led3_on) for drv_led3_on
    bms_task.o(i.bms_task_main) refers to drv_led.o(i.drv_led5_on) for drv_led5_on
    bms_task.o(i.bms_task_main) refers to drv_led.o(i.drv_led4_off) for drv_led4_off
    bms_task.o(i.bms_task_main) refers to drv_led.o(i.drv_led6_off) for drv_led6_off
    bms_task.o(i.bms_task_main) refers to drv_led.o(i.drv_led4_on) for drv_led4_on
    bms_task.o(i.bms_task_main) refers to drv_led.o(i.drv_led6_on) for drv_led6_on
    bms_task.o(i.bms_task_main) refers to drv_led.o(i.drv_led3_off) for drv_led3_off
    bms_task.o(i.bms_task_main) refers to drv_led.o(i.drv_led5_off) for drv_led5_off
    bms_task.o(i.bms_task_main) refers to bms_task.o(.data) for key1Handle
    bms_task.o(i.key1_scan) refers to co_key.o(i.key_detect_polling) for key_detect_polling
    bms_task.o(i.key1_scan) refers to bms_task.o(.data) for key1Handle
    can_task.o(i.battery_to_flight_ack) refers to flighter_batt_protocol.o(i.f_b_frame_get_one_data) for f_b_frame_get_one_data
    can_task.o(i.battery_to_flight_ack) refers to flighter_batt_protocol.o(i.f_b_get_one_frame) for f_b_get_one_frame
    can_task.o(i.battery_to_flight_ack) refers to flighter_batt_protocol.o(i.f_b_protocol_process) for f_b_protocol_process
    can_task.o(i.battery_to_flight_ack) refers to drv_can.o(i.drv_can_write) for drv_can_write
    can_task.o(i.can_task_create) refers to os_task.o(i.os_task_create) for os_task_create
    can_task.o(i.can_task_create) refers to printf5.o(i.__0printf$5) for __2printf
    can_task.o(i.can_task_create) refers to os_timer.o(i.os_timer_create) for os_timer_create
    can_task.o(i.can_task_create) refers to os_timer.o(i.os_timer_ctrl) for os_timer_ctrl
    can_task.o(i.can_task_create) refers to drv_can.o(i.user_can_rx_matrix_handle_register) for user_can_rx_matrix_handle_register
    can_task.o(i.can_task_create) refers to can_task.o(i.can_task_main) for can_task_main
    can_task.o(i.can_task_create) refers to can_task.o(.data) for canTaskHandle
    can_task.o(i.can_task_create) refers to can_task.o(i.can_task_timer_callback) for can_task_timer_callback
    can_task.o(i.can_task_create) refers to can_task.o(i.can_task_matrix_process) for can_task_matrix_process
    can_task.o(i.can_task_main) refers to can_task.o(i.save_battery_serial_number) for save_battery_serial_number
    can_task.o(i.can_task_main) refers to can_task.o(i.send_info_to_flightor) for send_info_to_flightor
    can_task.o(i.can_task_matrix_process) refers to can_task.o(.constdata) for canProcessMatrix
    can_task.o(i.can_task_timer_callback) refers to can_task.o(.data) for flightorHeartBeat
    can_task.o(i.save_battery_serial_number) refers to flighter_batt_protocol.o(i.f_b_save_serialnum_flag_get) for f_b_save_serialnum_flag_get
    can_task.o(i.save_battery_serial_number) refers to flighter_batt_protocol.o(i.f_b_rx_serialnum_get) for f_b_rx_serialnum_get
    can_task.o(i.save_battery_serial_number) refers to printf5.o(i.__0printf$5) for __2printf
    can_task.o(i.save_battery_serial_number) refers to drv_ex_flash.o(i.drv_ex_flash_write_buff) for drv_ex_flash_write_buff
    can_task.o(i.save_battery_serial_number) refers to flighter_batt_protocol.o(i.f_b_save_serialnum_flag_clear) for f_b_save_serialnum_flag_clear
    can_task.o(i.send_info_to_flightor) refers to flighter_batt_protocol.o(i.f_b_active_flag_get) for f_b_active_flag_get
    can_task.o(i.send_info_to_flightor) refers to flighter_batt_protocol.o(i.f_b_active_flag_clear) for f_b_active_flag_clear
    can_task.o(i.send_info_to_flightor) refers to co_crc.o(i.crc_ccitt_16_xmodem) for crc_ccitt_16_xmodem
    can_task.o(i.send_info_to_flightor) refers to drv_can.o(i.drv_can_write) for drv_can_write
    can_task.o(i.send_info_to_flightor) refers to can_task.o(.data) for flightorHeartBeat
    can_task.o(.constdata) refers to can_task.o(i.battery_to_flight_ack) for battery_to_flight_ack
    flighter_batt_protocol.o(i.f_b_active_flag_clear) refers to flighter_batt_protocol.o(.data) for protocolActiveFlag
    flighter_batt_protocol.o(i.f_b_active_flag_get) refers to flighter_batt_protocol.o(.data) for protocolActiveFlag
    flighter_batt_protocol.o(i.f_b_active_flag_set) refers to flighter_batt_protocol.o(.data) for protocolActiveFlag
    flighter_batt_protocol.o(i.f_b_frame_analyse_char) refers to co_packet.o(i.co_pack_get_frame_point) for co_pack_get_frame_point
    flighter_batt_protocol.o(i.f_b_frame_analyse_char) refers to co_crc.o(i.crc_ccitt_16_xmodem) for crc_ccitt_16_xmodem
    flighter_batt_protocol.o(i.f_b_frame_analyse_char) refers to flighter_batt_protocol.o(.data) for step
    flighter_batt_protocol.o(i.f_b_frame_get_one_data) refers to co_packet.o(i.co_pack_set_dat) for co_pack_set_dat
    flighter_batt_protocol.o(i.f_b_frame_get_one_data) refers to flighter_batt_protocol.o(.data) for packPt
    flighter_batt_protocol.o(i.f_b_frame_receiver_create) refers to co_packet.o(i.co_pack_create) for co_pack_create
    flighter_batt_protocol.o(i.f_b_frame_receiver_create) refers to flighter_batt_protocol.o(i.f_b_frame_analyse_char) for f_b_frame_analyse_char
    flighter_batt_protocol.o(i.f_b_frame_receiver_create) refers to flighter_batt_protocol.o(i.f_b_frame_timeout_check) for f_b_frame_timeout_check
    flighter_batt_protocol.o(i.f_b_get_one_frame) refers to co_packet.o(i.co_pack_get_one_frame) for co_pack_get_one_frame
    flighter_batt_protocol.o(i.f_b_get_one_frame) refers to flighter_batt_protocol.o(.data) for packPt
    flighter_batt_protocol.o(i.f_b_protocol_create) refers to flighter_batt_protocol.o(i.f_b_frame_receiver_create) for f_b_frame_receiver_create
    flighter_batt_protocol.o(i.f_b_protocol_create) refers to flighter_batt_protocol.o(.data) for packPt
    flighter_batt_protocol.o(i.f_b_protocol_create) refers to flighter_batt_protocol.o(.bss) for rxSerialNumStruct
    flighter_batt_protocol.o(i.f_b_protocol_process) refers to flighter_batt_protocol.o(i.f_b_recv_active_action) for f_b_recv_active_action
    flighter_batt_protocol.o(i.f_b_protocol_process) refers to flighter_batt_protocol.o(i.f_b_recv_serial_config_action) for f_b_recv_serial_config_action
    flighter_batt_protocol.o(i.f_b_protocol_process) refers to printf5.o(i.__0printf$5) for __2printf
    flighter_batt_protocol.o(i.f_b_recv_active_action) refers to flighter_batt_protocol.o(i.f_b_active_flag_set) for f_b_active_flag_set
    flighter_batt_protocol.o(i.f_b_recv_active_action) refers to printf5.o(i.__0printf$5) for __2printf
    flighter_batt_protocol.o(i.f_b_recv_active_action) refers to drv_ex_flash.o(i.drv_ex_flash_read_buff) for drv_ex_flash_read_buff
    flighter_batt_protocol.o(i.f_b_recv_serial_config_action) refers to drv_ex_flash.o(i.drv_ex_flash_read_buff) for drv_ex_flash_read_buff
    flighter_batt_protocol.o(i.f_b_recv_serial_config_action) refers to flighter_batt_protocol.o(i.f_b_save_serialnum_flag_clear) for f_b_save_serialnum_flag_clear
    flighter_batt_protocol.o(i.f_b_recv_serial_config_action) refers to printf5.o(i.__0printf$5) for __2printf
    flighter_batt_protocol.o(i.f_b_recv_serial_config_action) refers to flighter_batt_protocol.o(i.f_b_save_serialnum_flag_set) for f_b_save_serialnum_flag_set
    flighter_batt_protocol.o(i.f_b_recv_serial_config_action) refers to co_crc.o(i.crc_ccitt_16_xmodem) for crc_ccitt_16_xmodem
    flighter_batt_protocol.o(i.f_b_recv_serial_config_action) refers to flighter_batt_protocol.o(.bss) for rxSerialNumStruct
    flighter_batt_protocol.o(i.f_b_rx_serialnum_get) refers to flighter_batt_protocol.o(.bss) for rxSerialNumStruct
    flighter_batt_protocol.o(i.f_b_save_serialnum_flag_clear) refers to flighter_batt_protocol.o(.data) for saveSerialNumFlag
    flighter_batt_protocol.o(i.f_b_save_serialnum_flag_get) refers to flighter_batt_protocol.o(.data) for saveSerialNumFlag
    flighter_batt_protocol.o(i.f_b_save_serialnum_flag_set) refers to flighter_batt_protocol.o(.data) for saveSerialNumFlag
    entry.o(.ARM.Collect$$$$00000000) refers (Special) to entry10a.o(.ARM.Collect$$$$0000000D) for __rt_final_cpp
    entry.o(.ARM.Collect$$$$00000000) refers (Special) to entry11a.o(.ARM.Collect$$$$0000000F) for __rt_final_exit
    entry.o(.ARM.Collect$$$$00000000) refers (Special) to entry7b.o(.ARM.Collect$$$$00000008) for _main_clock
    entry.o(.ARM.Collect$$$$00000000) refers (Special) to entry8b.o(.ARM.Collect$$$$0000000A) for _main_cpp_init
    entry.o(.ARM.Collect$$$$00000000) refers (Special) to entry9a.o(.ARM.Collect$$$$0000000B) for _main_init
    entry.o(.ARM.Collect$$$$00000000) refers (Special) to entry5.o(.ARM.Collect$$$$00000004) for _main_scatterload
    entry.o(.ARM.Collect$$$$00000000) refers (Special) to entry2.o(.ARM.Collect$$$$00000001) for _main_stk
    printfb.o(i.__0fprintf$bare) refers to printfb.o(i._printf_core) for _printf_core
    printfb.o(i.__0fprintf$bare) refers to drv_print.o(i.fputc) for fputc
    printfb.o(i.__0printf$bare) refers to printfb.o(i._printf_core) for _printf_core
    printfb.o(i.__0printf$bare) refers to drv_print.o(i.fputc) for fputc
    printfb.o(i.__0printf$bare) refers to stdout.o(.data) for __stdout
    printfb.o(i.__0snprintf$bare) refers to printfb.o(i._printf_core) for _printf_core
    printfb.o(i.__0snprintf$bare) refers to printfb.o(i._snputc) for _snputc
    printfb.o(i.__0sprintf$bare) refers to printfb.o(i._printf_core) for _printf_core
    printfb.o(i.__0sprintf$bare) refers to printfb.o(i._sputc) for _sputc
    printfb.o(i.__0vfprintf$bare) refers to printfb.o(i._printf_core) for _printf_core
    printfb.o(i.__0vfprintf$bare) refers to drv_print.o(i.fputc) for fputc
    printfb.o(i.__0vprintf$bare) refers to printfb.o(i._printf_core) for _printf_core
    printfb.o(i.__0vprintf$bare) refers to drv_print.o(i.fputc) for fputc
    printfb.o(i.__0vprintf$bare) refers to stdout.o(.data) for __stdout
    printfb.o(i.__0vsnprintf$bare) refers to printfb.o(i._printf_core) for _printf_core
    printfb.o(i.__0vsnprintf$bare) refers to printfb.o(i._snputc) for _snputc
    printfb.o(i.__0vsprintf$bare) refers to printfb.o(i._printf_core) for _printf_core
    printfb.o(i.__0vsprintf$bare) refers to printfb.o(i._sputc) for _sputc
    printf0.o(i.__0fprintf$0) refers to printf0.o(i._printf_core) for _printf_core
    printf0.o(i.__0fprintf$0) refers to drv_print.o(i.fputc) for fputc
    printf0.o(i.__0printf$0) refers to printf0.o(i._printf_core) for _printf_core
    printf0.o(i.__0printf$0) refers to drv_print.o(i.fputc) for fputc
    printf0.o(i.__0printf$0) refers to stdout.o(.data) for __stdout
    printf0.o(i.__0snprintf$0) refers to printf0.o(i._printf_core) for _printf_core
    printf0.o(i.__0snprintf$0) refers to printf0.o(i._snputc) for _snputc
    printf0.o(i.__0sprintf$0) refers to printf0.o(i._printf_core) for _printf_core
    printf0.o(i.__0sprintf$0) refers to printf0.o(i._sputc) for _sputc
    printf0.o(i.__0vfprintf$0) refers to printf0.o(i._printf_core) for _printf_core
    printf0.o(i.__0vfprintf$0) refers to drv_print.o(i.fputc) for fputc
    printf0.o(i.__0vprintf$0) refers to printf0.o(i._printf_core) for _printf_core
    printf0.o(i.__0vprintf$0) refers to drv_print.o(i.fputc) for fputc
    printf0.o(i.__0vprintf$0) refers to stdout.o(.data) for __stdout
    printf0.o(i.__0vsnprintf$0) refers to printf0.o(i._printf_core) for _printf_core
    printf0.o(i.__0vsnprintf$0) refers to printf0.o(i._snputc) for _snputc
    printf0.o(i.__0vsprintf$0) refers to printf0.o(i._printf_core) for _printf_core
    printf0.o(i.__0vsprintf$0) refers to printf0.o(i._sputc) for _sputc
    printf1.o(i.__0fprintf$1) refers to printf1.o(i._printf_core) for _printf_core
    printf1.o(i.__0fprintf$1) refers to drv_print.o(i.fputc) for fputc
    printf1.o(i.__0printf$1) refers to printf1.o(i._printf_core) for _printf_core
    printf1.o(i.__0printf$1) refers to drv_print.o(i.fputc) for fputc
    printf1.o(i.__0printf$1) refers to stdout.o(.data) for __stdout
    printf1.o(i.__0snprintf$1) refers to printf1.o(i._printf_core) for _printf_core
    printf1.o(i.__0snprintf$1) refers to printf1.o(i._snputc) for _snputc
    printf1.o(i.__0sprintf$1) refers to printf1.o(i._printf_core) for _printf_core
    printf1.o(i.__0sprintf$1) refers to printf1.o(i._sputc) for _sputc
    printf1.o(i.__0vfprintf$1) refers to printf1.o(i._printf_core) for _printf_core
    printf1.o(i.__0vfprintf$1) refers to drv_print.o(i.fputc) for fputc
    printf1.o(i.__0vprintf$1) refers to printf1.o(i._printf_core) for _printf_core
    printf1.o(i.__0vprintf$1) refers to drv_print.o(i.fputc) for fputc
    printf1.o(i.__0vprintf$1) refers to stdout.o(.data) for __stdout
    printf1.o(i.__0vsnprintf$1) refers to printf1.o(i._printf_core) for _printf_core
    printf1.o(i.__0vsnprintf$1) refers to printf1.o(i._snputc) for _snputc
    printf1.o(i.__0vsprintf$1) refers to printf1.o(i._printf_core) for _printf_core
    printf1.o(i.__0vsprintf$1) refers to printf1.o(i._sputc) for _sputc
    printf1.o(i._printf_core) refers to uidiv.o(.text) for __aeabi_uidivmod
    printf2.o(i.__0fprintf$2) refers to printf2.o(i._printf_core) for _printf_core
    printf2.o(i.__0fprintf$2) refers to drv_print.o(i.fputc) for fputc
    printf2.o(i.__0printf$2) refers to printf2.o(i._printf_core) for _printf_core
    printf2.o(i.__0printf$2) refers to drv_print.o(i.fputc) for fputc
    printf2.o(i.__0printf$2) refers to stdout.o(.data) for __stdout
    printf2.o(i.__0snprintf$2) refers to printf2.o(i._printf_core) for _printf_core
    printf2.o(i.__0snprintf$2) refers to printf2.o(i._snputc) for _snputc
    printf2.o(i.__0sprintf$2) refers to printf2.o(i._printf_core) for _printf_core
    printf2.o(i.__0sprintf$2) refers to printf2.o(i._sputc) for _sputc
    printf2.o(i.__0vfprintf$2) refers to printf2.o(i._printf_core) for _printf_core
    printf2.o(i.__0vfprintf$2) refers to drv_print.o(i.fputc) for fputc
    printf2.o(i.__0vprintf$2) refers to printf2.o(i._printf_core) for _printf_core
    printf2.o(i.__0vprintf$2) refers to drv_print.o(i.fputc) for fputc
    printf2.o(i.__0vprintf$2) refers to stdout.o(.data) for __stdout
    printf2.o(i.__0vsnprintf$2) refers to printf2.o(i._printf_core) for _printf_core
    printf2.o(i.__0vsnprintf$2) refers to printf2.o(i._snputc) for _snputc
    printf2.o(i.__0vsprintf$2) refers to printf2.o(i._printf_core) for _printf_core
    printf2.o(i.__0vsprintf$2) refers to printf2.o(i._sputc) for _sputc
    printf3.o(i.__0fprintf$3) refers to printf3.o(i._printf_core) for _printf_core
    printf3.o(i.__0fprintf$3) refers to drv_print.o(i.fputc) for fputc
    printf3.o(i.__0printf$3) refers to printf3.o(i._printf_core) for _printf_core
    printf3.o(i.__0printf$3) refers to drv_print.o(i.fputc) for fputc
    printf3.o(i.__0printf$3) refers to stdout.o(.data) for __stdout
    printf3.o(i.__0snprintf$3) refers to printf3.o(i._printf_core) for _printf_core
    printf3.o(i.__0snprintf$3) refers to printf3.o(i._snputc) for _snputc
    printf3.o(i.__0sprintf$3) refers to printf3.o(i._printf_core) for _printf_core
    printf3.o(i.__0sprintf$3) refers to printf3.o(i._sputc) for _sputc
    printf3.o(i.__0vfprintf$3) refers to printf3.o(i._printf_core) for _printf_core
    printf3.o(i.__0vfprintf$3) refers to drv_print.o(i.fputc) for fputc
    printf3.o(i.__0vprintf$3) refers to printf3.o(i._printf_core) for _printf_core
    printf3.o(i.__0vprintf$3) refers to drv_print.o(i.fputc) for fputc
    printf3.o(i.__0vprintf$3) refers to stdout.o(.data) for __stdout
    printf3.o(i.__0vsnprintf$3) refers to printf3.o(i._printf_core) for _printf_core
    printf3.o(i.__0vsnprintf$3) refers to printf3.o(i._snputc) for _snputc
    printf3.o(i.__0vsprintf$3) refers to printf3.o(i._printf_core) for _printf_core
    printf3.o(i.__0vsprintf$3) refers to printf3.o(i._sputc) for _sputc
    printf3.o(i._printf_core) refers to uidiv.o(.text) for __aeabi_uidivmod
    printf4.o(i.__0fprintf$4) refers to printf4.o(i._printf_core) for _printf_core
    printf4.o(i.__0fprintf$4) refers to drv_print.o(i.fputc) for fputc
    printf4.o(i.__0printf$4) refers to printf4.o(i._printf_core) for _printf_core
    printf4.o(i.__0printf$4) refers to drv_print.o(i.fputc) for fputc
    printf4.o(i.__0printf$4) refers to stdout.o(.data) for __stdout
    printf4.o(i.__0snprintf$4) refers to printf4.o(i._printf_core) for _printf_core
    printf4.o(i.__0snprintf$4) refers to printf4.o(i._snputc) for _snputc
    printf4.o(i.__0sprintf$4) refers to printf4.o(i._printf_core) for _printf_core
    printf4.o(i.__0sprintf$4) refers to printf4.o(i._sputc) for _sputc
    printf4.o(i.__0vfprintf$4) refers to printf4.o(i._printf_core) for _printf_core
    printf4.o(i.__0vfprintf$4) refers to drv_print.o(i.fputc) for fputc
    printf4.o(i.__0vprintf$4) refers to printf4.o(i._printf_core) for _printf_core
    printf4.o(i.__0vprintf$4) refers to drv_print.o(i.fputc) for fputc
    printf4.o(i.__0vprintf$4) refers to stdout.o(.data) for __stdout
    printf4.o(i.__0vsnprintf$4) refers to printf4.o(i._printf_core) for _printf_core
    printf4.o(i.__0vsnprintf$4) refers to printf4.o(i._snputc) for _snputc
    printf4.o(i.__0vsprintf$4) refers to printf4.o(i._printf_core) for _printf_core
    printf4.o(i.__0vsprintf$4) refers to printf4.o(i._sputc) for _sputc
    printf4.o(i._printf_core) refers to uldiv.o(.text) for __aeabi_uldivmod
    printf5.o(i.__0fprintf$5) refers to printf5.o(i._printf_core) for _printf_core
    printf5.o(i.__0fprintf$5) refers to drv_print.o(i.fputc) for fputc
    printf5.o(i.__0printf$5) refers to printf5.o(i._printf_core) for _printf_core
    printf5.o(i.__0printf$5) refers to drv_print.o(i.fputc) for fputc
    printf5.o(i.__0printf$5) refers to stdout.o(.data) for __stdout
    printf5.o(i.__0snprintf$5) refers to printf5.o(i._printf_core) for _printf_core
    printf5.o(i.__0snprintf$5) refers to printf5.o(i._snputc) for _snputc
    printf5.o(i.__0sprintf$5) refers to printf5.o(i._printf_core) for _printf_core
    printf5.o(i.__0sprintf$5) refers to printf5.o(i._sputc) for _sputc
    printf5.o(i.__0vfprintf$5) refers to printf5.o(i._printf_core) for _printf_core
    printf5.o(i.__0vfprintf$5) refers to drv_print.o(i.fputc) for fputc
    printf5.o(i.__0vprintf$5) refers to printf5.o(i._printf_core) for _printf_core
    printf5.o(i.__0vprintf$5) refers to drv_print.o(i.fputc) for fputc
    printf5.o(i.__0vprintf$5) refers to stdout.o(.data) for __stdout
    printf5.o(i.__0vsnprintf$5) refers to printf5.o(i._printf_core) for _printf_core
    printf5.o(i.__0vsnprintf$5) refers to printf5.o(i._snputc) for _snputc
    printf5.o(i.__0vsprintf$5) refers to printf5.o(i._printf_core) for _printf_core
    printf5.o(i.__0vsprintf$5) refers to printf5.o(i._sputc) for _sputc
    printf5.o(i._printf_core) refers to uldiv.o(.text) for __aeabi_uldivmod
    printf6.o(i.__0fprintf$6) refers to printf6.o(i._printf_core) for _printf_core
    printf6.o(i.__0fprintf$6) refers to drv_print.o(i.fputc) for fputc
    printf6.o(i.__0printf$6) refers to printf6.o(i._printf_core) for _printf_core
    printf6.o(i.__0printf$6) refers to drv_print.o(i.fputc) for fputc
    printf6.o(i.__0printf$6) refers to stdout.o(.data) for __stdout
    printf6.o(i.__0snprintf$6) refers to printf6.o(i._printf_core) for _printf_core
    printf6.o(i.__0snprintf$6) refers to printf6.o(i._snputc) for _snputc
    printf6.o(i.__0sprintf$6) refers to printf6.o(i._printf_core) for _printf_core
    printf6.o(i.__0sprintf$6) refers to printf6.o(i._sputc) for _sputc
    printf6.o(i.__0vfprintf$6) refers to printf6.o(i._printf_core) for _printf_core
    printf6.o(i.__0vfprintf$6) refers to drv_print.o(i.fputc) for fputc
    printf6.o(i.__0vprintf$6) refers to printf6.o(i._printf_core) for _printf_core
    printf6.o(i.__0vprintf$6) refers to drv_print.o(i.fputc) for fputc
    printf6.o(i.__0vprintf$6) refers to stdout.o(.data) for __stdout
    printf6.o(i.__0vsnprintf$6) refers to printf6.o(i._printf_core) for _printf_core
    printf6.o(i.__0vsnprintf$6) refers to printf6.o(i._snputc) for _snputc
    printf6.o(i.__0vsprintf$6) refers to printf6.o(i._printf_core) for _printf_core
    printf6.o(i.__0vsprintf$6) refers to printf6.o(i._sputc) for _sputc
    printf6.o(i._printf_core) refers to printf6.o(i._printf_pre_padding) for _printf_pre_padding
    printf6.o(i._printf_core) refers to uidiv.o(.text) for __aeabi_uidivmod
    printf6.o(i._printf_core) refers to printf6.o(i._printf_post_padding) for _printf_post_padding
    printf7.o(i.__0fprintf$7) refers to printf7.o(i._printf_core) for _printf_core
    printf7.o(i.__0fprintf$7) refers to drv_print.o(i.fputc) for fputc
    printf7.o(i.__0printf$7) refers to printf7.o(i._printf_core) for _printf_core
    printf7.o(i.__0printf$7) refers to drv_print.o(i.fputc) for fputc
    printf7.o(i.__0printf$7) refers to stdout.o(.data) for __stdout
    printf7.o(i.__0snprintf$7) refers to printf7.o(i._printf_core) for _printf_core
    printf7.o(i.__0snprintf$7) refers to printf7.o(i._snputc) for _snputc
    printf7.o(i.__0sprintf$7) refers to printf7.o(i._printf_core) for _printf_core
    printf7.o(i.__0sprintf$7) refers to printf7.o(i._sputc) for _sputc
    printf7.o(i.__0vfprintf$7) refers to printf7.o(i._printf_core) for _printf_core
    printf7.o(i.__0vfprintf$7) refers to drv_print.o(i.fputc) for fputc
    printf7.o(i.__0vprintf$7) refers to printf7.o(i._printf_core) for _printf_core
    printf7.o(i.__0vprintf$7) refers to drv_print.o(i.fputc) for fputc
    printf7.o(i.__0vprintf$7) refers to stdout.o(.data) for __stdout
    printf7.o(i.__0vsnprintf$7) refers to printf7.o(i._printf_core) for _printf_core
    printf7.o(i.__0vsnprintf$7) refers to printf7.o(i._snputc) for _snputc
    printf7.o(i.__0vsprintf$7) refers to printf7.o(i._printf_core) for _printf_core
    printf7.o(i.__0vsprintf$7) refers to printf7.o(i._sputc) for _sputc
    printf7.o(i._printf_core) refers to printf7.o(i._printf_pre_padding) for _printf_pre_padding
    printf7.o(i._printf_core) refers to uldiv.o(.text) for __aeabi_uldivmod
    printf7.o(i._printf_core) refers to printf7.o(i._printf_post_padding) for _printf_post_padding
    printf8.o(i.__0fprintf$8) refers to printf8.o(i._printf_core) for _printf_core
    printf8.o(i.__0fprintf$8) refers to drv_print.o(i.fputc) for fputc
    printf8.o(i.__0printf$8) refers to printf8.o(i._printf_core) for _printf_core
    printf8.o(i.__0printf$8) refers to drv_print.o(i.fputc) for fputc
    printf8.o(i.__0printf$8) refers to stdout.o(.data) for __stdout
    printf8.o(i.__0snprintf$8) refers to printf8.o(i._printf_core) for _printf_core
    printf8.o(i.__0snprintf$8) refers to printf8.o(i._snputc) for _snputc
    printf8.o(i.__0sprintf$8) refers to printf8.o(i._printf_core) for _printf_core
    printf8.o(i.__0sprintf$8) refers to printf8.o(i._sputc) for _sputc
    printf8.o(i.__0vfprintf$8) refers to printf8.o(i._printf_core) for _printf_core
    printf8.o(i.__0vfprintf$8) refers to drv_print.o(i.fputc) for fputc
    printf8.o(i.__0vprintf$8) refers to printf8.o(i._printf_core) for _printf_core
    printf8.o(i.__0vprintf$8) refers to drv_print.o(i.fputc) for fputc
    printf8.o(i.__0vprintf$8) refers to stdout.o(.data) for __stdout
    printf8.o(i.__0vsnprintf$8) refers to printf8.o(i._printf_core) for _printf_core
    printf8.o(i.__0vsnprintf$8) refers to printf8.o(i._snputc) for _snputc
    printf8.o(i.__0vsprintf$8) refers to printf8.o(i._printf_core) for _printf_core
    printf8.o(i.__0vsprintf$8) refers to printf8.o(i._sputc) for _sputc
    printf8.o(i._printf_core) refers to printf8.o(i._printf_pre_padding) for _printf_pre_padding
    printf8.o(i._printf_core) refers to uldiv.o(.text) for __aeabi_uldivmod
    printf8.o(i._printf_core) refers to printf8.o(i._printf_post_padding) for _printf_post_padding
    printfa.o(i.__0fprintf) refers (Special) to iusefp.o(.text) for __I$use$fp
    printfa.o(i.__0fprintf) refers to printfa.o(i._printf_core) for _printf_core
    printfa.o(i.__0fprintf) refers to drv_print.o(i.fputc) for fputc
    printfa.o(i.__0printf) refers (Special) to iusefp.o(.text) for __I$use$fp
    printfa.o(i.__0printf) refers to printfa.o(i._printf_core) for _printf_core
    printfa.o(i.__0printf) refers to drv_print.o(i.fputc) for fputc
    printfa.o(i.__0printf) refers to stdout.o(.data) for __stdout
    printfa.o(i.__0snprintf) refers (Special) to iusefp.o(.text) for __I$use$fp
    printfa.o(i.__0snprintf) refers to printfa.o(i._printf_core) for _printf_core
    printfa.o(i.__0snprintf) refers to printfa.o(i._snputc) for _snputc
    printfa.o(i.__0sprintf) refers (Special) to iusefp.o(.text) for __I$use$fp
    printfa.o(i.__0sprintf) refers to printfa.o(i._printf_core) for _printf_core
    printfa.o(i.__0sprintf) refers to printfa.o(i._sputc) for _sputc
    printfa.o(i.__0vfprintf) refers (Special) to iusefp.o(.text) for __I$use$fp
    printfa.o(i.__0vfprintf) refers to printfa.o(i._printf_core) for _printf_core
    printfa.o(i.__0vfprintf) refers to drv_print.o(i.fputc) for fputc
    printfa.o(i.__0vprintf) refers (Special) to iusefp.o(.text) for __I$use$fp
    printfa.o(i.__0vprintf) refers to printfa.o(i._printf_core) for _printf_core
    printfa.o(i.__0vprintf) refers to drv_print.o(i.fputc) for fputc
    printfa.o(i.__0vprintf) refers to stdout.o(.data) for __stdout
    printfa.o(i.__0vsnprintf) refers (Special) to iusefp.o(.text) for __I$use$fp
    printfa.o(i.__0vsnprintf) refers to printfa.o(i._printf_core) for _printf_core
    printfa.o(i.__0vsnprintf) refers to printfa.o(i._snputc) for _snputc
    printfa.o(i.__0vsprintf) refers (Special) to iusefp.o(.text) for __I$use$fp
    printfa.o(i.__0vsprintf) refers to printfa.o(i._printf_core) for _printf_core
    printfa.o(i.__0vsprintf) refers to printfa.o(i._sputc) for _sputc
    printfa.o(i._fp_digits) refers (Special) to iusefp.o(.text) for __I$use$fp
    printfa.o(i._fp_digits) refers to dmul.o(.text) for __aeabi_dmul
    printfa.o(i._fp_digits) refers to ddiv.o(.text) for __aeabi_ddiv
    printfa.o(i._fp_digits) refers to cdrcmple.o(.text) for __aeabi_cdrcmple
    printfa.o(i._fp_digits) refers to dadd.o(.text) for __aeabi_dadd
    printfa.o(i._fp_digits) refers to dfixul.o(.text) for __aeabi_d2ulz
    printfa.o(i._fp_digits) refers to uldiv.o(.text) for __aeabi_uldivmod
    printfa.o(i._printf_core) refers (Special) to iusefp.o(.text) for __I$use$fp
    printfa.o(i._printf_core) refers to printfa.o(i._printf_pre_padding) for _printf_pre_padding
    printfa.o(i._printf_core) refers to uldiv.o(.text) for __aeabi_uldivmod
    printfa.o(i._printf_core) refers to printfa.o(i._printf_post_padding) for _printf_post_padding
    printfa.o(i._printf_core) refers to printfa.o(i._fp_digits) for _fp_digits
    printfa.o(i._printf_core) refers to uidiv.o(.text) for __aeabi_uidivmod
    printfa.o(i._printf_post_padding) refers (Special) to iusefp.o(.text) for __I$use$fp
    printfa.o(i._printf_pre_padding) refers (Special) to iusefp.o(.text) for __I$use$fp
    printfa.o(i._snputc) refers (Special) to iusefp.o(.text) for __I$use$fp
    printfa.o(i._sputc) refers (Special) to iusefp.o(.text) for __I$use$fp
    entry2.o(.ARM.Collect$$$$00000001) refers to entry2.o(.ARM.Collect$$$$00002712) for __lit__00000000
    entry2.o(.ARM.Collect$$$$00002712) refers to startup_stm32f103xe.o(STACK) for __initial_sp
    entry2.o(__vectab_stack_and_reset_area) refers to startup_stm32f103xe.o(STACK) for __initial_sp
    entry2.o(__vectab_stack_and_reset_area) refers to entry.o(.ARM.Collect$$$$00000000) for __main
    entry5.o(.ARM.Collect$$$$00000004) refers to init.o(.text) for __scatterload
    entry9a.o(.ARM.Collect$$$$0000000B) refers to main.o(i.main) for main
    entry9b.o(.ARM.Collect$$$$0000000C) refers to main.o(i.main) for main
    uldiv.o(.text) refers to llushr.o(.text) for __aeabi_llsr
    uldiv.o(.text) refers to llshl.o(.text) for __aeabi_llsl
    dadd.o(.text) refers to llshl.o(.text) for __aeabi_llsl
    dadd.o(.text) refers to llsshr.o(.text) for __aeabi_lasr
    dadd.o(.text) refers to depilogue.o(.text) for _double_epilogue
    dmul.o(.text) refers to depilogue.o(.text) for _double_epilogue
    ddiv.o(.text) refers to depilogue.o(.text) for _double_round
    dfixul.o(.text) refers to llushr.o(.text) for __aeabi_llsr
    dfixul.o(.text) refers to llshl.o(.text) for __aeabi_llsl
    init.o(.text) refers to entry5.o(.ARM.Collect$$$$00000004) for __main_after_scatterload
    depilogue.o(.text) refers to llshl.o(.text) for __aeabi_llsl
    depilogue.o(.text) refers to llushr.o(.text) for __aeabi_llsr


==============================================================================

Removing Unused input sections from the image.

    Removing os_fifo.o(i.os_fifo_check_buf), (70 bytes).
    Removing os_fifo.o(i.os_fifo_get_buf), (72 bytes).
    Removing os_fifo.o(i.os_fifo_get_dat), (46 bytes).
    Removing os_fifo.o(i.os_fifo_get_empty_space), (40 bytes).
    Removing os_fifo.o(i.os_fifo_push_buf), (76 bytes).
    Removing os_fifo.o(i.os_fifo_push_bufEx), (176 bytes).
    Removing os_ipc_msg.o(i.os_ipc_get_msg), (26 bytes).
    Removing os_ipc_msg.o(i.os_ipc_msg_check), (26 bytes).
    Removing os_ipc_msg.o(i.os_ipc_msg_create), (82 bytes).
    Removing os_ipc_msg.o(i.os_ipc_msg_flush), (14 bytes).
    Removing os_ipc_msg.o(i.os_ipc_msg_flush_one), (16 bytes).
    Removing os_ipc_msg.o(i.os_ipc_msg_get_count), (34 bytes).
    Removing os_ipc_msg.o(i.os_ipc_post_msg), (36 bytes).
    Removing os_simlist.o(i.os_slist_add_data), (26 bytes).
    Removing os_simlist.o(i.os_slist_create), (20 bytes).
    Removing os_simlist.o(i.os_slist_foreach), (32 bytes).
    Removing os_task.o(i.os_task_event_broadcast), (32 bytes).
    Removing os_task.o(i.os_task_event_check_occur), (48 bytes).
    Removing os_task.o(i.os_task_event_set), (18 bytes).
    Removing os_timer.o(i.os_timer_reload_time), (52 bytes).
    Removing co_key.o(i.key_object_reset), (12 bytes).
    Removing co_gpio_iic_1.o(i.CRC8), (68 bytes).
    Removing co_gpio_iic_1.o(i.co_gpio_i2c_create), (36 bytes).
    Removing co_gpio_iic_1.o(i.co_gpio_i2c_destroy), (12 bytes).
    Removing co_gpio_iic_1.o(i.co_gpio_i2c_read_buff), (168 bytes).
    Removing co_gpio_iic_1.o(i.co_gpio_i2c_read_buffCRC), (192 bytes).
    Removing co_gpio_iic_1.o(i.co_gpio_i2c_read_byteCRC), (104 bytes).
    Removing co_gpio_iic_1.o(i.co_gpio_i2c_write_buff), (134 bytes).
    Removing co_gpio_iic_1.o(i.co_gpio_i2c_write_byteCRC), (72 bytes).
    Removing co_gpio_iic_1.o(i.i2c_io_read), (162 bytes).
    Removing co_gpio_iic_1.o(i.i2c_io_start), (42 bytes).
    Removing co_gpio_iic_1.o(i.i2c_io_stop), (30 bytes).
    Removing co_gpio_iic_1.o(i.i2c_io_write), (118 bytes).
    Removing co_gpio_iic_1.o(.bss), (96 bytes).
    Removing co_packet.o(i.co_pack_get_cnt), (22 bytes).
    Removing co_packet.o(i.co_pack_push_buf), (32 bytes).
    Removing drv_print.o(i.db_assert_failed), (84 bytes).
    Removing drv_ble.o(i.drv_ble_start), (4 bytes).
    Removing drv_gauge.o(i.drv_gauge_start), (4 bytes).
    Removing drv_afe.o(i.bq769xx_OCD_set), (56 bytes).
    Removing drv_afe.o(i.bq769xx_OV_UV_set), (152 bytes).
    Removing drv_afe.o(i.bq769xx_SCD_OCD_range_set_ops), (128 bytes).
    Removing drv_afe.o(i.bq769xx_SCD_set), (88 bytes).
    Removing drv_afe.o(i.bq769xx_adc_detect_ctrl), (96 bytes).
    Removing drv_afe.o(i.bq769xx_balance_ctrl), (40 bytes).
    Removing drv_afe.o(i.bq769xx_cc_init), (36 bytes).
    Removing drv_afe.o(i.bq769xx_chg_off_dischg_off), (68 bytes).
    Removing drv_afe.o(i.bq769xx_chg_off_dischg_on), (80 bytes).
    Removing drv_afe.o(i.bq769xx_chg_on_dischg_off), (80 bytes).
    Removing drv_afe.o(i.bq769xx_chg_on_dischg_on), (68 bytes).
    Removing drv_afe.o(i.bq769xx_current_detect_ctrl), (164 bytes).
    Removing drv_afe.o(i.bq769xx_enter_ship_mode), (92 bytes).
    Removing drv_afe.o(i.bq769xx_get_cell_volt), (92 bytes).
    Removing drv_afe.o(i.bq769xx_get_current_adc), (56 bytes).
    Removing drv_afe.o(i.bq769xx_get_gain), (100 bytes).
    Removing drv_afe.o(i.bq769xx_get_offset), (52 bytes).
    Removing drv_afe.o(i.drv_afe_start), (48 bytes).
    Removing drv_afe.o(i.gpio_iic_delay), (14 bytes).
    Removing drv_afe.o(i.gpio_iic_scl_ctrl), (56 bytes).
    Removing drv_afe.o(i.gpio_iic_sda_ctrl), (56 bytes).
    Removing drv_afe.o(.data), (4 bytes).
    Removing drv_ex_flash.o(i.drv_ex_flash_erase_chip), (56 bytes).
    Removing drv_ex_flash.o(i.drv_ex_flash_power_down), (26 bytes).
    Removing drv_ex_flash.o(i.drv_ex_flash_read_manufacture_id), (118 bytes).
    Removing drv_ex_flash.o(i.drv_ex_flash_wake_up), (26 bytes).
    Removing drv_ex_flash.o(i.drv_ex_flash_wp_enable), (12 bytes).
    Removing drv_led.o(i.drv_led1_off), (20 bytes).
    Removing drv_led.o(i.drv_led1_on), (20 bytes).
    Removing drv_led.o(i.drv_led2_off), (20 bytes).
    Removing drv_led.o(i.drv_led2_on), (20 bytes).
    Removing drv_led.o(i.drv_led7_off), (20 bytes).
    Removing drv_led.o(i.drv_led7_on), (20 bytes).
    Removing drv_power.o(i.drv_power_start), (4 bytes).
    Removing hal_mcu.o(.rev16_text), (4 bytes).
    Removing hal_mcu.o(.revsh_text), (4 bytes).
    Removing hal_mcu.o(.rrx_text), (6 bytes).
    Removing hal_clk.o(.rev16_text), (4 bytes).
    Removing hal_clk.o(.revsh_text), (4 bytes).
    Removing hal_clk.o(.rrx_text), (6 bytes).
    Removing hal_gpio.o(.rev16_text), (4 bytes).
    Removing hal_gpio.o(.revsh_text), (4 bytes).
    Removing hal_gpio.o(.rrx_text), (6 bytes).
    Removing hal_wtd.o(.rev16_text), (4 bytes).
    Removing hal_wtd.o(.revsh_text), (4 bytes).
    Removing hal_wtd.o(.rrx_text), (6 bytes).
    Removing hal_wtd.o(i.hal_wtd_init), (36 bytes).
    Removing hal_wtd.o(i.hal_wtd_refresh), (16 bytes).
    Removing hal_wtd.o(.bss), (12 bytes).
    Removing hal_timer.o(.rev16_text), (4 bytes).
    Removing hal_timer.o(.revsh_text), (4 bytes).
    Removing hal_timer.o(.rrx_text), (6 bytes).
    Removing hal_uart.o(.rev16_text), (4 bytes).
    Removing hal_uart.o(.revsh_text), (4 bytes).
    Removing hal_uart.o(.rrx_text), (6 bytes).
    Removing hal_can.o(.rev16_text), (4 bytes).
    Removing hal_can.o(.revsh_text), (4 bytes).
    Removing hal_can.o(.rrx_text), (6 bytes).
    Removing hal_can.o(i.hal_can_16bit_id_mask), (80 bytes).
    Removing hal_can.o(i.hal_can_deinit), (32 bytes).
    Removing hal_adc.o(.rev16_text), (4 bytes).
    Removing hal_adc.o(.revsh_text), (4 bytes).
    Removing hal_adc.o(.rrx_text), (6 bytes).
    Removing hal_dma.o(.rev16_text), (4 bytes).
    Removing hal_dma.o(.revsh_text), (4 bytes).
    Removing hal_dma.o(.rrx_text), (6 bytes).
    Removing hal_flash.o(.rev16_text), (4 bytes).
    Removing hal_flash.o(.revsh_text), (4 bytes).
    Removing hal_flash.o(.rrx_text), (6 bytes).
    Removing hal_flash.o(i.hal_flash_erase), (46 bytes).
    Removing hal_flash.o(i.hal_flash_read_byte), (6 bytes).
    Removing hal_flash.o(i.hal_flash_read_byte_buff), (32 bytes).
    Removing hal_flash.o(i.hal_flash_read_half_word), (6 bytes).
    Removing hal_flash.o(i.hal_flash_read_half_word_buff), (34 bytes).
    Removing hal_flash.o(i.hal_flash_read_word), (6 bytes).
    Removing hal_flash.o(i.hal_flash_read_word_buff), (32 bytes).
    Removing hal_flash.o(i.hal_flash_write_halfword_buff), (236 bytes).
    Removing hal_flash.o(i.hal_flash_write_halfword_no_check), (44 bytes).
    Removing hal_flash.o(.bss), (2048 bytes).
    Removing hal_spi.o(.rev16_text), (4 bytes).
    Removing hal_spi.o(.revsh_text), (4 bytes).
    Removing hal_spi.o(.rrx_text), (6 bytes).
    Removing stm32f1xx_hal.o(.rev16_text), (4 bytes).
    Removing stm32f1xx_hal.o(.revsh_text), (4 bytes).
    Removing stm32f1xx_hal.o(.rrx_text), (6 bytes).
    Removing stm32f1xx_hal.o(i.HAL_DBGMCU_DisableDBGSleepMode), (20 bytes).
    Removing stm32f1xx_hal.o(i.HAL_DBGMCU_DisableDBGStandbyMode), (20 bytes).
    Removing stm32f1xx_hal.o(i.HAL_DBGMCU_DisableDBGStopMode), (20 bytes).
    Removing stm32f1xx_hal.o(i.HAL_DBGMCU_EnableDBGSleepMode), (20 bytes).
    Removing stm32f1xx_hal.o(i.HAL_DBGMCU_EnableDBGStandbyMode), (20 bytes).
    Removing stm32f1xx_hal.o(i.HAL_DBGMCU_EnableDBGStopMode), (20 bytes).
    Removing stm32f1xx_hal.o(i.HAL_DeInit), (36 bytes).
    Removing stm32f1xx_hal.o(i.HAL_Delay), (40 bytes).
    Removing stm32f1xx_hal.o(i.HAL_GetDEVID), (16 bytes).
    Removing stm32f1xx_hal.o(i.HAL_GetHalVersion), (8 bytes).
    Removing stm32f1xx_hal.o(i.HAL_GetREVID), (12 bytes).
    Removing stm32f1xx_hal.o(i.HAL_GetTickFreq), (12 bytes).
    Removing stm32f1xx_hal.o(i.HAL_GetTickPrio), (12 bytes).
    Removing stm32f1xx_hal.o(i.HAL_GetUID), (28 bytes).
    Removing stm32f1xx_hal.o(i.HAL_MspDeInit), (2 bytes).
    Removing stm32f1xx_hal.o(i.HAL_ResumeTick), (18 bytes).
    Removing stm32f1xx_hal.o(i.HAL_SetTickFreq), (40 bytes).
    Removing stm32f1xx_hal.o(i.HAL_SuspendTick), (18 bytes).
    Removing stm32f1xx_hal_adc.o(.rev16_text), (4 bytes).
    Removing stm32f1xx_hal_adc.o(.revsh_text), (4 bytes).
    Removing stm32f1xx_hal_adc.o(.rrx_text), (6 bytes).
    Removing stm32f1xx_hal_adc.o(i.ADC_ConversionStop_Disable), (82 bytes).
    Removing stm32f1xx_hal_adc.o(i.ADC_DMAConvCplt), (82 bytes).
    Removing stm32f1xx_hal_adc.o(i.ADC_DMAError), (30 bytes).
    Removing stm32f1xx_hal_adc.o(i.ADC_DMAHalfConvCplt), (14 bytes).
    Removing stm32f1xx_hal_adc.o(i.ADC_Enable), (132 bytes).
    Removing stm32f1xx_hal_adc.o(i.HAL_ADC_AnalogWDGConfig), (148 bytes).
    Removing stm32f1xx_hal_adc.o(i.HAL_ADC_ConfigChannel), (352 bytes).
    Removing stm32f1xx_hal_adc.o(i.HAL_ADC_ConvCpltCallback), (2 bytes).
    Removing stm32f1xx_hal_adc.o(i.HAL_ADC_ConvHalfCpltCallback), (2 bytes).
    Removing stm32f1xx_hal_adc.o(i.HAL_ADC_DeInit), (268 bytes).
    Removing stm32f1xx_hal_adc.o(i.HAL_ADC_ErrorCallback), (2 bytes).
    Removing stm32f1xx_hal_adc.o(i.HAL_ADC_GetError), (6 bytes).
    Removing stm32f1xx_hal_adc.o(i.HAL_ADC_GetState), (6 bytes).
    Removing stm32f1xx_hal_adc.o(i.HAL_ADC_GetValue), (8 bytes).
    Removing stm32f1xx_hal_adc.o(i.HAL_ADC_IRQHandler), (290 bytes).
    Removing stm32f1xx_hal_adc.o(i.HAL_ADC_Init), (352 bytes).
    Removing stm32f1xx_hal_adc.o(i.HAL_ADC_LevelOutOfWindowCallback), (2 bytes).
    Removing stm32f1xx_hal_adc.o(i.HAL_ADC_MspDeInit), (2 bytes).
    Removing stm32f1xx_hal_adc.o(i.HAL_ADC_MspInit), (2 bytes).
    Removing stm32f1xx_hal_adc.o(i.HAL_ADC_PollForConversion), (368 bytes).
    Removing stm32f1xx_hal_adc.o(i.HAL_ADC_PollForEvent), (100 bytes).
    Removing stm32f1xx_hal_adc.o(i.HAL_ADC_Start), (304 bytes).
    Removing stm32f1xx_hal_adc.o(i.HAL_ADC_Start_DMA), (384 bytes).
    Removing stm32f1xx_hal_adc.o(i.HAL_ADC_Start_IT), (316 bytes).
    Removing stm32f1xx_hal_adc.o(i.HAL_ADC_Stop), (64 bytes).
    Removing stm32f1xx_hal_adc.o(i.HAL_ADC_Stop_DMA), (96 bytes).
    Removing stm32f1xx_hal_adc.o(i.HAL_ADC_Stop_IT), (76 bytes).
    Removing stm32f1xx_hal_adc_ex.o(.rev16_text), (4 bytes).
    Removing stm32f1xx_hal_adc_ex.o(.revsh_text), (4 bytes).
    Removing stm32f1xx_hal_adc_ex.o(.rrx_text), (6 bytes).
    Removing stm32f1xx_hal_adc_ex.o(i.HAL_ADCEx_Calibration_Start), (260 bytes).
    Removing stm32f1xx_hal_adc_ex.o(i.HAL_ADCEx_InjectedConfigChannel), (628 bytes).
    Removing stm32f1xx_hal_adc_ex.o(i.HAL_ADCEx_InjectedConvCpltCallback), (2 bytes).
    Removing stm32f1xx_hal_adc_ex.o(i.HAL_ADCEx_InjectedGetValue), (50 bytes).
    Removing stm32f1xx_hal_adc_ex.o(i.HAL_ADCEx_InjectedPollForConversion), (348 bytes).
    Removing stm32f1xx_hal_adc_ex.o(i.HAL_ADCEx_InjectedStart), (236 bytes).
    Removing stm32f1xx_hal_adc_ex.o(i.HAL_ADCEx_InjectedStart_IT), (248 bytes).
    Removing stm32f1xx_hal_adc_ex.o(i.HAL_ADCEx_InjectedStop), (94 bytes).
    Removing stm32f1xx_hal_adc_ex.o(i.HAL_ADCEx_InjectedStop_IT), (106 bytes).
    Removing stm32f1xx_hal_adc_ex.o(i.HAL_ADCEx_MultiModeConfigChannel), (116 bytes).
    Removing stm32f1xx_hal_adc_ex.o(i.HAL_ADCEx_MultiModeGetValue), (36 bytes).
    Removing stm32f1xx_hal_adc_ex.o(i.HAL_ADCEx_MultiModeStart_DMA), (276 bytes).
    Removing stm32f1xx_hal_adc_ex.o(i.HAL_ADCEx_MultiModeStop_DMA), (140 bytes).
    Removing stm32f1xx_hal_can.o(.rev16_text), (4 bytes).
    Removing stm32f1xx_hal_can.o(.revsh_text), (4 bytes).
    Removing stm32f1xx_hal_can.o(.rrx_text), (6 bytes).
    Removing stm32f1xx_hal_can.o(i.HAL_CAN_GetError), (6 bytes).
    Removing stm32f1xx_hal_can.o(i.HAL_CAN_GetState), (8 bytes).
    Removing stm32f1xx_hal_can.o(i.HAL_CAN_Receive), (686 bytes).
    Removing stm32f1xx_hal_can.o(i.HAL_CAN_Receive_IT), (268 bytes).
    Removing stm32f1xx_hal_can.o(i.HAL_CAN_Sleep), (166 bytes).
    Removing stm32f1xx_hal_can.o(i.HAL_CAN_Transmit), (688 bytes).
    Removing stm32f1xx_hal_can.o(i.HAL_CAN_Transmit_IT), (494 bytes).
    Removing stm32f1xx_hal_can.o(i.HAL_CAN_WakeUp), (140 bytes).
    Removing stm32f1xx_hal_cortex.o(.rev16_text), (4 bytes).
    Removing stm32f1xx_hal_cortex.o(.revsh_text), (4 bytes).
    Removing stm32f1xx_hal_cortex.o(.rrx_text), (6 bytes).
    Removing stm32f1xx_hal_cortex.o(i.HAL_NVIC_ClearPendingIRQ), (28 bytes).
    Removing stm32f1xx_hal_cortex.o(i.HAL_NVIC_DisableIRQ), (28 bytes).
    Removing stm32f1xx_hal_cortex.o(i.HAL_NVIC_GetActive), (40 bytes).
    Removing stm32f1xx_hal_cortex.o(i.HAL_NVIC_GetPendingIRQ), (40 bytes).
    Removing stm32f1xx_hal_cortex.o(i.HAL_NVIC_GetPriority), (148 bytes).
    Removing stm32f1xx_hal_cortex.o(i.HAL_NVIC_GetPriorityGrouping), (8 bytes).
    Removing stm32f1xx_hal_cortex.o(i.HAL_NVIC_SetPendingIRQ), (28 bytes).
    Removing stm32f1xx_hal_cortex.o(i.HAL_NVIC_SystemReset), (68 bytes).
    Removing stm32f1xx_hal_cortex.o(i.HAL_SYSTICK_Callback), (2 bytes).
    Removing stm32f1xx_hal_cortex.o(i.HAL_SYSTICK_IRQHandler), (8 bytes).
    Removing stm32f1xx_hal_dma.o(.rev16_text), (4 bytes).
    Removing stm32f1xx_hal_dma.o(.revsh_text), (4 bytes).
    Removing stm32f1xx_hal_dma.o(.rrx_text), (6 bytes).
    Removing stm32f1xx_hal_dma.o(i.DMA_SetConfig), (44 bytes).
    Removing stm32f1xx_hal_dma.o(i.HAL_DMA_Abort), (58 bytes).
    Removing stm32f1xx_hal_dma.o(i.HAL_DMA_Abort_IT), (424 bytes).
    Removing stm32f1xx_hal_dma.o(i.HAL_DMA_DeInit), (132 bytes).
    Removing stm32f1xx_hal_dma.o(i.HAL_DMA_GetError), (6 bytes).
    Removing stm32f1xx_hal_dma.o(i.HAL_DMA_GetState), (8 bytes).
    Removing stm32f1xx_hal_dma.o(i.HAL_DMA_IRQHandler), (920 bytes).
    Removing stm32f1xx_hal_dma.o(i.HAL_DMA_Init), (148 bytes).
    Removing stm32f1xx_hal_dma.o(i.HAL_DMA_PollForTransfer), (1620 bytes).
    Removing stm32f1xx_hal_dma.o(i.HAL_DMA_RegisterCallback), (90 bytes).
    Removing stm32f1xx_hal_dma.o(i.HAL_DMA_Start), (114 bytes).
    Removing stm32f1xx_hal_dma.o(i.HAL_DMA_Start_IT), (156 bytes).
    Removing stm32f1xx_hal_dma.o(i.HAL_DMA_UnRegisterCallback), (106 bytes).
    Removing stm32f1xx_hal_gpio.o(.rev16_text), (4 bytes).
    Removing stm32f1xx_hal_gpio.o(.revsh_text), (4 bytes).
    Removing stm32f1xx_hal_gpio.o(.rrx_text), (6 bytes).
    Removing stm32f1xx_hal_gpio.o(i.HAL_GPIO_DeInit), (344 bytes).
    Removing stm32f1xx_hal_gpio.o(i.HAL_GPIO_EXTI_Callback), (2 bytes).
    Removing stm32f1xx_hal_gpio.o(i.HAL_GPIO_EXTI_IRQHandler), (28 bytes).
    Removing stm32f1xx_hal_gpio.o(i.HAL_GPIO_LockPin), (46 bytes).
    Removing stm32f1xx_hal_gpio_ex.o(.rev16_text), (4 bytes).
    Removing stm32f1xx_hal_gpio_ex.o(.revsh_text), (4 bytes).
    Removing stm32f1xx_hal_gpio_ex.o(.rrx_text), (6 bytes).
    Removing stm32f1xx_hal_gpio_ex.o(i.HAL_GPIOEx_ConfigEventout), (24 bytes).
    Removing stm32f1xx_hal_gpio_ex.o(i.HAL_GPIOEx_DisableEventout), (20 bytes).
    Removing stm32f1xx_hal_gpio_ex.o(i.HAL_GPIOEx_EnableEventout), (20 bytes).
    Removing stm32f1xx_hal_iwdg.o(.rev16_text), (4 bytes).
    Removing stm32f1xx_hal_iwdg.o(.revsh_text), (4 bytes).
    Removing stm32f1xx_hal_iwdg.o(.rrx_text), (6 bytes).
    Removing stm32f1xx_hal_iwdg.o(i.HAL_IWDG_Init), (80 bytes).
    Removing stm32f1xx_hal_iwdg.o(i.HAL_IWDG_Refresh), (14 bytes).
    Removing stm32f1xx_hal_pwr.o(.rev16_text), (4 bytes).
    Removing stm32f1xx_hal_pwr.o(.revsh_text), (4 bytes).
    Removing stm32f1xx_hal_pwr.o(.rrx_text), (6 bytes).
    Removing stm32f1xx_hal_pwr.o(i.HAL_PWR_ConfigPVD), (180 bytes).
    Removing stm32f1xx_hal_pwr.o(i.HAL_PWR_DeInit), (28 bytes).
    Removing stm32f1xx_hal_pwr.o(i.HAL_PWR_DisableBkUpAccess), (12 bytes).
    Removing stm32f1xx_hal_pwr.o(i.HAL_PWR_DisablePVD), (12 bytes).
    Removing stm32f1xx_hal_pwr.o(i.HAL_PWR_DisableSEVOnPend), (20 bytes).
    Removing stm32f1xx_hal_pwr.o(i.HAL_PWR_DisableSleepOnExit), (20 bytes).
    Removing stm32f1xx_hal_pwr.o(i.HAL_PWR_DisableWakeUpPin), (28 bytes).
    Removing stm32f1xx_hal_pwr.o(i.HAL_PWR_EnableBkUpAccess), (12 bytes).
    Removing stm32f1xx_hal_pwr.o(i.HAL_PWR_EnablePVD), (12 bytes).
    Removing stm32f1xx_hal_pwr.o(i.HAL_PWR_EnableSEVOnPend), (20 bytes).
    Removing stm32f1xx_hal_pwr.o(i.HAL_PWR_EnableSleepOnExit), (20 bytes).
    Removing stm32f1xx_hal_pwr.o(i.HAL_PWR_EnableWakeUpPin), (28 bytes).
    Removing stm32f1xx_hal_pwr.o(i.HAL_PWR_EnterSLEEPMode), (32 bytes).
    Removing stm32f1xx_hal_pwr.o(i.HAL_PWR_EnterSTANDBYMode), (40 bytes).
    Removing stm32f1xx_hal_pwr.o(i.HAL_PWR_EnterSTOPMode), (84 bytes).
    Removing stm32f1xx_hal_pwr.o(i.HAL_PWR_PVDCallback), (2 bytes).
    Removing stm32f1xx_hal_pwr.o(i.HAL_PWR_PVD_IRQHandler), (32 bytes).
    Removing stm32f1xx_hal_pwr.o(i.PWR_OverloadWfe), (6 bytes).
    Removing stm32f1xx_hal_rcc.o(.rev16_text), (4 bytes).
    Removing stm32f1xx_hal_rcc.o(.revsh_text), (4 bytes).
    Removing stm32f1xx_hal_rcc.o(.rrx_text), (6 bytes).
    Removing stm32f1xx_hal_rcc.o(i.HAL_RCC_CSSCallback), (2 bytes).
    Removing stm32f1xx_hal_rcc.o(i.HAL_RCC_DeInit), (264 bytes).
    Removing stm32f1xx_hal_rcc.o(i.HAL_RCC_DisableCSS), (12 bytes).
    Removing stm32f1xx_hal_rcc.o(i.HAL_RCC_EnableCSS), (12 bytes).
    Removing stm32f1xx_hal_rcc.o(i.HAL_RCC_GetClockConfig), (68 bytes).
    Removing stm32f1xx_hal_rcc.o(i.HAL_RCC_GetOscConfig), (200 bytes).
    Removing stm32f1xx_hal_rcc.o(i.HAL_RCC_MCOConfig), (100 bytes).
    Removing stm32f1xx_hal_rcc.o(i.HAL_RCC_NMI_IRQHandler), (32 bytes).
    Removing stm32f1xx_hal_rcc_ex.o(.rev16_text), (4 bytes).
    Removing stm32f1xx_hal_rcc_ex.o(.revsh_text), (4 bytes).
    Removing stm32f1xx_hal_rcc_ex.o(.rrx_text), (6 bytes).
    Removing stm32f1xx_hal_rcc_ex.o(i.HAL_RCCEx_GetPeriphCLKConfig), (84 bytes).
    Removing stm32f1xx_hal_rcc_ex.o(i.HAL_RCCEx_GetPeriphCLKFreq), (316 bytes).
    Removing stm32f1xx_hal_tim.o(.rev16_text), (4 bytes).
    Removing stm32f1xx_hal_tim.o(.revsh_text), (4 bytes).
    Removing stm32f1xx_hal_tim.o(.rrx_text), (6 bytes).
    Removing stm32f1xx_hal_tim.o(i.HAL_TIM_Base_DeInit), (70 bytes).
    Removing stm32f1xx_hal_tim.o(i.HAL_TIM_Base_GetState), (8 bytes).
    Removing stm32f1xx_hal_tim.o(i.HAL_TIM_Base_MspDeInit), (2 bytes).
    Removing stm32f1xx_hal_tim.o(i.HAL_TIM_Base_Start), (30 bytes).
    Removing stm32f1xx_hal_tim.o(i.HAL_TIM_Base_Start_DMA), (104 bytes).
    Removing stm32f1xx_hal_tim.o(i.HAL_TIM_Base_Start_IT), (30 bytes).
    Removing stm32f1xx_hal_tim.o(i.HAL_TIM_Base_Stop), (56 bytes).
    Removing stm32f1xx_hal_tim.o(i.HAL_TIM_Base_Stop_DMA), (62 bytes).
    Removing stm32f1xx_hal_tim.o(i.HAL_TIM_Base_Stop_IT), (56 bytes).
    Removing stm32f1xx_hal_tim.o(i.HAL_TIM_ConfigClockSource), (306 bytes).
    Removing stm32f1xx_hal_tim.o(i.HAL_TIM_ConfigOCrefClear), (248 bytes).
    Removing stm32f1xx_hal_tim.o(i.HAL_TIM_ConfigTI1Input), (24 bytes).
    Removing stm32f1xx_hal_tim.o(i.HAL_TIM_DMABurst_ReadStart), (388 bytes).
    Removing stm32f1xx_hal_tim.o(i.HAL_TIM_DMABurst_ReadStop), (128 bytes).
    Removing stm32f1xx_hal_tim.o(i.HAL_TIM_DMABurst_WriteStart), (388 bytes).
    Removing stm32f1xx_hal_tim.o(i.HAL_TIM_DMABurst_WriteStop), (128 bytes).
    Removing stm32f1xx_hal_tim.o(i.HAL_TIM_Encoder_DeInit), (70 bytes).
    Removing stm32f1xx_hal_tim.o(i.HAL_TIM_Encoder_GetState), (8 bytes).
    Removing stm32f1xx_hal_tim.o(i.HAL_TIM_Encoder_Init), (180 bytes).
    Removing stm32f1xx_hal_tim.o(i.HAL_TIM_Encoder_MspDeInit), (2 bytes).
    Removing stm32f1xx_hal_tim.o(i.HAL_TIM_Encoder_MspInit), (2 bytes).
    Removing stm32f1xx_hal_tim.o(i.HAL_TIM_Encoder_Start), (78 bytes).
    Removing stm32f1xx_hal_tim.o(i.HAL_TIM_Encoder_Start_DMA), (328 bytes).
    Removing stm32f1xx_hal_tim.o(i.HAL_TIM_Encoder_Start_IT), (126 bytes).
    Removing stm32f1xx_hal_tim.o(i.HAL_TIM_Encoder_Stop), (104 bytes).
    Removing stm32f1xx_hal_tim.o(i.HAL_TIM_Encoder_Stop_DMA), (152 bytes).
    Removing stm32f1xx_hal_tim.o(i.HAL_TIM_Encoder_Stop_IT), (152 bytes).
    Removing stm32f1xx_hal_tim.o(i.HAL_TIM_ErrorCallback), (2 bytes).
    Removing stm32f1xx_hal_tim.o(i.HAL_TIM_GenerateEvent), (54 bytes).
    Removing stm32f1xx_hal_tim.o(i.HAL_TIM_IC_CaptureCallback), (2 bytes).
    Removing stm32f1xx_hal_tim.o(i.HAL_TIM_IC_ConfigChannel), (224 bytes).
    Removing stm32f1xx_hal_tim.o(i.HAL_TIM_IC_DeInit), (70 bytes).
    Removing stm32f1xx_hal_tim.o(i.HAL_TIM_IC_GetState), (8 bytes).
    Removing stm32f1xx_hal_tim.o(i.HAL_TIM_IC_Init), (52 bytes).
    Removing stm32f1xx_hal_tim.o(i.HAL_TIM_IC_MspDeInit), (2 bytes).
    Removing stm32f1xx_hal_tim.o(i.HAL_TIM_IC_MspInit), (2 bytes).
    Removing stm32f1xx_hal_tim.o(i.HAL_TIM_IC_Start), (32 bytes).
    Removing stm32f1xx_hal_tim.o(i.HAL_TIM_IC_Start_DMA), (268 bytes).
    Removing stm32f1xx_hal_tim.o(i.HAL_TIM_IC_Start_IT), (108 bytes).
    Removing stm32f1xx_hal_tim.o(i.HAL_TIM_IC_Stop), (58 bytes).
    Removing stm32f1xx_hal_tim.o(i.HAL_TIM_IC_Stop_DMA), (140 bytes).
    Removing stm32f1xx_hal_tim.o(i.HAL_TIM_IC_Stop_IT), (134 bytes).
    Removing stm32f1xx_hal_tim.o(i.HAL_TIM_IRQHandler), (406 bytes).
    Removing stm32f1xx_hal_tim.o(i.HAL_TIM_OC_ConfigChannel), (116 bytes).
    Removing stm32f1xx_hal_tim.o(i.HAL_TIM_OC_DeInit), (70 bytes).
    Removing stm32f1xx_hal_tim.o(i.HAL_TIM_OC_DelayElapsedCallback), (2 bytes).
    Removing stm32f1xx_hal_tim.o(i.HAL_TIM_OC_GetState), (8 bytes).
    Removing stm32f1xx_hal_tim.o(i.HAL_TIM_OC_Init), (52 bytes).
    Removing stm32f1xx_hal_tim.o(i.HAL_TIM_OC_MspDeInit), (2 bytes).
    Removing stm32f1xx_hal_tim.o(i.HAL_TIM_OC_MspInit), (2 bytes).
    Removing stm32f1xx_hal_tim.o(i.HAL_TIM_OC_Start), (76 bytes).
    Removing stm32f1xx_hal_tim.o(i.HAL_TIM_OC_Start_DMA), (312 bytes).
    Removing stm32f1xx_hal_tim.o(i.HAL_TIM_OC_Start_IT), (152 bytes).
    Removing stm32f1xx_hal_tim.o(i.HAL_TIM_OC_Stop), (128 bytes).
    Removing stm32f1xx_hal_tim.o(i.HAL_TIM_OC_Stop_DMA), (212 bytes).
    Removing stm32f1xx_hal_tim.o(i.HAL_TIM_OC_Stop_IT), (204 bytes).
    Removing stm32f1xx_hal_tim.o(i.HAL_TIM_OnePulse_ConfigChannel), (286 bytes).
    Removing stm32f1xx_hal_tim.o(i.HAL_TIM_OnePulse_DeInit), (70 bytes).
    Removing stm32f1xx_hal_tim.o(i.HAL_TIM_OnePulse_GetState), (8 bytes).
    Removing stm32f1xx_hal_tim.o(i.HAL_TIM_OnePulse_Init), (76 bytes).
    Removing stm32f1xx_hal_tim.o(i.HAL_TIM_OnePulse_MspDeInit), (2 bytes).
    Removing stm32f1xx_hal_tim.o(i.HAL_TIM_OnePulse_MspInit), (2 bytes).
    Removing stm32f1xx_hal_tim.o(i.HAL_TIM_OnePulse_Start), (76 bytes).
    Removing stm32f1xx_hal_tim.o(i.HAL_TIM_OnePulse_Start_IT), (100 bytes).
    Removing stm32f1xx_hal_tim.o(i.HAL_TIM_OnePulse_Stop), (140 bytes).
    Removing stm32f1xx_hal_tim.o(i.HAL_TIM_OnePulse_Stop_IT), (164 bytes).
    Removing stm32f1xx_hal_tim.o(i.HAL_TIM_PWM_ConfigChannel), (264 bytes).
    Removing stm32f1xx_hal_tim.o(i.HAL_TIM_PWM_DeInit), (70 bytes).
    Removing stm32f1xx_hal_tim.o(i.HAL_TIM_PWM_GetState), (8 bytes).
    Removing stm32f1xx_hal_tim.o(i.HAL_TIM_PWM_Init), (52 bytes).
    Removing stm32f1xx_hal_tim.o(i.HAL_TIM_PWM_MspDeInit), (2 bytes).
    Removing stm32f1xx_hal_tim.o(i.HAL_TIM_PWM_MspInit), (2 bytes).
    Removing stm32f1xx_hal_tim.o(i.HAL_TIM_PWM_PulseFinishedCallback), (2 bytes).
    Removing stm32f1xx_hal_tim.o(i.HAL_TIM_PWM_Start), (76 bytes).
    Removing stm32f1xx_hal_tim.o(i.HAL_TIM_PWM_Start_DMA), (312 bytes).
    Removing stm32f1xx_hal_tim.o(i.HAL_TIM_PWM_Start_IT), (152 bytes).
    Removing stm32f1xx_hal_tim.o(i.HAL_TIM_PWM_Stop), (136 bytes).
    Removing stm32f1xx_hal_tim.o(i.HAL_TIM_PWM_Stop_DMA), (212 bytes).
    Removing stm32f1xx_hal_tim.o(i.HAL_TIM_PWM_Stop_IT), (204 bytes).
    Removing stm32f1xx_hal_tim.o(i.HAL_TIM_PeriodElapsedCallback), (2 bytes).
    Removing stm32f1xx_hal_tim.o(i.HAL_TIM_ReadCapturedValue), (84 bytes).
    Removing stm32f1xx_hal_tim.o(i.HAL_TIM_SlaveConfigSynchronization), (86 bytes).
    Removing stm32f1xx_hal_tim.o(i.HAL_TIM_SlaveConfigSynchronization_IT), (86 bytes).
    Removing stm32f1xx_hal_tim.o(i.HAL_TIM_TriggerCallback), (2 bytes).
    Removing stm32f1xx_hal_tim.o(i.TIM_CCxChannelCmd), (28 bytes).
    Removing stm32f1xx_hal_tim.o(i.TIM_DMACaptureCplt), (70 bytes).
    Removing stm32f1xx_hal_tim.o(i.TIM_DMADelayPulseCplt), (70 bytes).
    Removing stm32f1xx_hal_tim.o(i.TIM_DMAError), (20 bytes).
    Removing stm32f1xx_hal_tim.o(i.TIM_DMAPeriodElapsedCplt), (20 bytes).
    Removing stm32f1xx_hal_tim.o(i.TIM_DMATriggerCplt), (20 bytes).
    Removing stm32f1xx_hal_tim.o(i.TIM_ETR_SetConfig), (24 bytes).
    Removing stm32f1xx_hal_tim.o(i.TIM_ITRx_SetConfig), (20 bytes).
    Removing stm32f1xx_hal_tim.o(i.TIM_OC1_SetConfig), (120 bytes).
    Removing stm32f1xx_hal_tim.o(i.TIM_OC2_SetConfig), (128 bytes).
    Removing stm32f1xx_hal_tim.o(i.TIM_OC3_SetConfig), (128 bytes).
    Removing stm32f1xx_hal_tim.o(i.TIM_OC4_SetConfig), (88 bytes).
    Removing stm32f1xx_hal_tim.o(i.TIM_SlaveTimer_SetConfig), (164 bytes).
    Removing stm32f1xx_hal_tim.o(i.TIM_TI1_ConfigInputStage), (42 bytes).
    Removing stm32f1xx_hal_tim.o(i.TIM_TI1_SetConfig), (128 bytes).
    Removing stm32f1xx_hal_tim.o(i.TIM_TI2_ConfigInputStage), (44 bytes).
    Removing stm32f1xx_hal_tim.o(i.TIM_TI2_SetConfig), (62 bytes).
    Removing stm32f1xx_hal_tim.o(i.TIM_TI3_SetConfig), (60 bytes).
    Removing stm32f1xx_hal_tim.o(i.TIM_TI4_SetConfig), (64 bytes).
    Removing stm32f1xx_hal_tim_ex.o(.rev16_text), (4 bytes).
    Removing stm32f1xx_hal_tim_ex.o(.revsh_text), (4 bytes).
    Removing stm32f1xx_hal_tim_ex.o(.rrx_text), (6 bytes).
    Removing stm32f1xx_hal_tim_ex.o(i.HAL_TIMEx_BreakCallback), (2 bytes).
    Removing stm32f1xx_hal_tim_ex.o(i.HAL_TIMEx_CommutationCallback), (2 bytes).
    Removing stm32f1xx_hal_tim_ex.o(i.HAL_TIMEx_ConfigBreakDeadTime), (126 bytes).
    Removing stm32f1xx_hal_tim_ex.o(i.HAL_TIMEx_ConfigCommutationEvent), (110 bytes).
    Removing stm32f1xx_hal_tim_ex.o(i.HAL_TIMEx_ConfigCommutationEvent_DMA), (144 bytes).
    Removing stm32f1xx_hal_tim_ex.o(i.HAL_TIMEx_ConfigCommutationEvent_IT), (122 bytes).
    Removing stm32f1xx_hal_tim_ex.o(i.HAL_TIMEx_HallSensor_DeInit), (70 bytes).
    Removing stm32f1xx_hal_tim_ex.o(i.HAL_TIMEx_HallSensor_GetState), (8 bytes).
    Removing stm32f1xx_hal_tim_ex.o(i.HAL_TIMEx_HallSensor_Init), (208 bytes).
    Removing stm32f1xx_hal_tim_ex.o(i.HAL_TIMEx_HallSensor_MspDeInit), (2 bytes).
    Removing stm32f1xx_hal_tim_ex.o(i.HAL_TIMEx_HallSensor_MspInit), (2 bytes).
    Removing stm32f1xx_hal_tim_ex.o(i.HAL_TIMEx_HallSensor_Start), (30 bytes).
    Removing stm32f1xx_hal_tim_ex.o(i.HAL_TIMEx_HallSensor_Start_DMA), (112 bytes).
    Removing stm32f1xx_hal_tim_ex.o(i.HAL_TIMEx_HallSensor_Start_IT), (42 bytes).
    Removing stm32f1xx_hal_tim_ex.o(i.HAL_TIMEx_HallSensor_Stop), (56 bytes).
    Removing stm32f1xx_hal_tim_ex.o(i.HAL_TIMEx_HallSensor_Stop_DMA), (68 bytes).
    Removing stm32f1xx_hal_tim_ex.o(i.HAL_TIMEx_HallSensor_Stop_IT), (68 bytes).
    Removing stm32f1xx_hal_tim_ex.o(i.HAL_TIMEx_MasterConfigSynchronization), (98 bytes).
    Removing stm32f1xx_hal_tim_ex.o(i.HAL_TIMEx_OCN_Start), (44 bytes).
    Removing stm32f1xx_hal_tim_ex.o(i.HAL_TIMEx_OCN_Start_DMA), (232 bytes).
    Removing stm32f1xx_hal_tim_ex.o(i.HAL_TIMEx_OCN_Start_IT), (114 bytes).
    Removing stm32f1xx_hal_tim_ex.o(i.HAL_TIMEx_OCN_Stop), (96 bytes).
    Removing stm32f1xx_hal_tim_ex.o(i.HAL_TIMEx_OCN_Stop_DMA), (160 bytes).
    Removing stm32f1xx_hal_tim_ex.o(i.HAL_TIMEx_OCN_Stop_IT), (180 bytes).
    Removing stm32f1xx_hal_tim_ex.o(i.HAL_TIMEx_OnePulseN_Start), (32 bytes).
    Removing stm32f1xx_hal_tim_ex.o(i.HAL_TIMEx_OnePulseN_Start_IT), (56 bytes).
    Removing stm32f1xx_hal_tim_ex.o(i.HAL_TIMEx_OnePulseN_Stop), (96 bytes).
    Removing stm32f1xx_hal_tim_ex.o(i.HAL_TIMEx_OnePulseN_Stop_IT), (120 bytes).
    Removing stm32f1xx_hal_tim_ex.o(i.HAL_TIMEx_PWMN_Start), (44 bytes).
    Removing stm32f1xx_hal_tim_ex.o(i.HAL_TIMEx_PWMN_Start_DMA), (232 bytes).
    Removing stm32f1xx_hal_tim_ex.o(i.HAL_TIMEx_PWMN_Start_IT), (114 bytes).
    Removing stm32f1xx_hal_tim_ex.o(i.HAL_TIMEx_PWMN_Stop), (96 bytes).
    Removing stm32f1xx_hal_tim_ex.o(i.HAL_TIMEx_PWMN_Stop_DMA), (160 bytes).
    Removing stm32f1xx_hal_tim_ex.o(i.HAL_TIMEx_PWMN_Stop_IT), (180 bytes).
    Removing stm32f1xx_hal_tim_ex.o(i.TIMEx_DMACommutationCplt), (20 bytes).
    Removing stm32f1xx_hal_tim_ex.o(i.TIM_CCxNChannelCmd), (28 bytes).
    Removing stm32f1xx_hal_uart.o(.rev16_text), (4 bytes).
    Removing stm32f1xx_hal_uart.o(.revsh_text), (4 bytes).
    Removing stm32f1xx_hal_uart.o(.rrx_text), (6 bytes).
    Removing stm32f1xx_hal_uart.o(i.HAL_HalfDuplex_EnableReceiver), (68 bytes).
    Removing stm32f1xx_hal_uart.o(i.HAL_HalfDuplex_EnableTransmitter), (68 bytes).
    Removing stm32f1xx_hal_uart.o(i.HAL_HalfDuplex_Init), (118 bytes).
    Removing stm32f1xx_hal_uart.o(i.HAL_LIN_Init), (134 bytes).
    Removing stm32f1xx_hal_uart.o(i.HAL_LIN_SendBreak), (62 bytes).
    Removing stm32f1xx_hal_uart.o(i.HAL_MultiProcessor_EnterMuteMode), (62 bytes).
    Removing stm32f1xx_hal_uart.o(i.HAL_MultiProcessor_ExitMuteMode), (62 bytes).
    Removing stm32f1xx_hal_uart.o(i.HAL_MultiProcessor_Init), (138 bytes).
    Removing stm32f1xx_hal_uart.o(i.HAL_UART_Abort), (126 bytes).
    Removing stm32f1xx_hal_uart.o(i.HAL_UART_AbortCpltCallback), (2 bytes).
    Removing stm32f1xx_hal_uart.o(i.HAL_UART_AbortReceive), (80 bytes).
    Removing stm32f1xx_hal_uart.o(i.HAL_UART_AbortReceiveCpltCallback), (2 bytes).
    Removing stm32f1xx_hal_uart.o(i.HAL_UART_AbortReceive_IT), (120 bytes).
    Removing stm32f1xx_hal_uart.o(i.HAL_UART_AbortTransmit), (68 bytes).
    Removing stm32f1xx_hal_uart.o(i.HAL_UART_AbortTransmitCpltCallback), (2 bytes).
    Removing stm32f1xx_hal_uart.o(i.HAL_UART_AbortTransmit_IT), (108 bytes).
    Removing stm32f1xx_hal_uart.o(i.HAL_UART_Abort_IT), (216 bytes).
    Removing stm32f1xx_hal_uart.o(i.HAL_UART_DMAPause), (124 bytes).
    Removing stm32f1xx_hal_uart.o(i.HAL_UART_DMAResume), (126 bytes).
    Removing stm32f1xx_hal_uart.o(i.HAL_UART_DMAStop), (102 bytes).
    Removing stm32f1xx_hal_uart.o(i.HAL_UART_ErrorCallback), (2 bytes).
    Removing stm32f1xx_hal_uart.o(i.HAL_UART_GetError), (6 bytes).
    Removing stm32f1xx_hal_uart.o(i.HAL_UART_GetState), (20 bytes).
    Removing stm32f1xx_hal_uart.o(i.HAL_UART_IRQHandler), (332 bytes).
    Removing stm32f1xx_hal_uart.o(i.HAL_UART_Receive), (222 bytes).
    Removing stm32f1xx_hal_uart.o(i.HAL_UART_Receive_DMA), (196 bytes).
    Removing stm32f1xx_hal_uart.o(i.HAL_UART_Receive_IT), (112 bytes).
    Removing stm32f1xx_hal_uart.o(i.HAL_UART_RxCpltCallback), (2 bytes).
    Removing stm32f1xx_hal_uart.o(i.HAL_UART_RxHalfCpltCallback), (2 bytes).
    Removing stm32f1xx_hal_uart.o(i.HAL_UART_Transmit), (214 bytes).
    Removing stm32f1xx_hal_uart.o(i.HAL_UART_Transmit_DMA), (156 bytes).
    Removing stm32f1xx_hal_uart.o(i.HAL_UART_Transmit_IT), (88 bytes).
    Removing stm32f1xx_hal_uart.o(i.HAL_UART_TxCpltCallback), (2 bytes).
    Removing stm32f1xx_hal_uart.o(i.HAL_UART_TxHalfCpltCallback), (2 bytes).
    Removing stm32f1xx_hal_uart.o(i.UART_DMAAbortOnError), (20 bytes).
    Removing stm32f1xx_hal_uart.o(i.UART_DMAError), (80 bytes).
    Removing stm32f1xx_hal_uart.o(i.UART_DMAReceiveCplt), (70 bytes).
    Removing stm32f1xx_hal_uart.o(i.UART_DMARxAbortCallback), (52 bytes).
    Removing stm32f1xx_hal_uart.o(i.UART_DMARxHalfCplt), (14 bytes).
    Removing stm32f1xx_hal_uart.o(i.UART_DMARxOnlyAbortCallback), (24 bytes).
    Removing stm32f1xx_hal_uart.o(i.UART_DMATransmitCplt), (54 bytes).
    Removing stm32f1xx_hal_uart.o(i.UART_DMATxAbortCallback), (52 bytes).
    Removing stm32f1xx_hal_uart.o(i.UART_DMATxHalfCplt), (14 bytes).
    Removing stm32f1xx_hal_uart.o(i.UART_DMATxOnlyAbortCallback), (24 bytes).
    Removing stm32f1xx_hal_uart.o(i.UART_EndRxTransfer), (32 bytes).
    Removing stm32f1xx_hal_uart.o(i.UART_EndTransmit_IT), (32 bytes).
    Removing stm32f1xx_hal_uart.o(i.UART_EndTxTransfer), (20 bytes).
    Removing stm32f1xx_hal_uart.o(i.UART_Receive_IT), (166 bytes).
    Removing stm32f1xx_hal_uart.o(i.UART_Transmit_IT), (104 bytes).
    Removing stm32f1xx_hal_uart.o(i.UART_WaitOnFlagUntilTimeout), (108 bytes).
    Removing stm32f1xx_hal_usart.o(.rev16_text), (4 bytes).
    Removing stm32f1xx_hal_usart.o(.revsh_text), (4 bytes).
    Removing stm32f1xx_hal_usart.o(.rrx_text), (6 bytes).
    Removing stm32f1xx_hal_usart.o(i.HAL_USART_Abort), (122 bytes).
    Removing stm32f1xx_hal_usart.o(i.HAL_USART_AbortCpltCallback), (2 bytes).
    Removing stm32f1xx_hal_usart.o(i.HAL_USART_Abort_IT), (212 bytes).
    Removing stm32f1xx_hal_usart.o(i.HAL_USART_DMAPause), (50 bytes).
    Removing stm32f1xx_hal_usart.o(i.HAL_USART_DMAResume), (50 bytes).
    Removing stm32f1xx_hal_usart.o(i.HAL_USART_DMAStop), (102 bytes).
    Removing stm32f1xx_hal_usart.o(i.HAL_USART_DeInit), (42 bytes).
    Removing stm32f1xx_hal_usart.o(i.HAL_USART_ErrorCallback), (2 bytes).
    Removing stm32f1xx_hal_usart.o(i.HAL_USART_GetError), (6 bytes).
    Removing stm32f1xx_hal_usart.o(i.HAL_USART_GetState), (8 bytes).
    Removing stm32f1xx_hal_usart.o(i.HAL_USART_IRQHandler), (384 bytes).
    Removing stm32f1xx_hal_usart.o(i.HAL_USART_Init), (90 bytes).
    Removing stm32f1xx_hal_usart.o(i.HAL_USART_MspDeInit), (2 bytes).
    Removing stm32f1xx_hal_usart.o(i.HAL_USART_MspInit), (2 bytes).
    Removing stm32f1xx_hal_usart.o(i.HAL_USART_Receive), (278 bytes).
    Removing stm32f1xx_hal_usart.o(i.HAL_USART_Receive_DMA), (248 bytes).
    Removing stm32f1xx_hal_usart.o(i.HAL_USART_Receive_IT), (120 bytes).
    Removing stm32f1xx_hal_usart.o(i.HAL_USART_RxCpltCallback), (2 bytes).
    Removing stm32f1xx_hal_usart.o(i.HAL_USART_RxHalfCpltCallback), (2 bytes).
    Removing stm32f1xx_hal_usart.o(i.HAL_USART_Transmit), (214 bytes).
    Removing stm32f1xx_hal_usart.o(i.HAL_USART_TransmitReceive), (320 bytes).
    Removing stm32f1xx_hal_usart.o(i.HAL_USART_TransmitReceive_DMA), (268 bytes).
    Removing stm32f1xx_hal_usart.o(i.HAL_USART_TransmitReceive_IT), (132 bytes).
    Removing stm32f1xx_hal_usart.o(i.HAL_USART_Transmit_DMA), (156 bytes).
    Removing stm32f1xx_hal_usart.o(i.HAL_USART_Transmit_IT), (88 bytes).
    Removing stm32f1xx_hal_usart.o(i.HAL_USART_TxCpltCallback), (2 bytes).
    Removing stm32f1xx_hal_usart.o(i.HAL_USART_TxHalfCpltCallback), (2 bytes).
    Removing stm32f1xx_hal_usart.o(i.HAL_USART_TxRxCpltCallback), (2 bytes).
    Removing stm32f1xx_hal_usart.o(i.USART_DMAAbortOnError), (20 bytes).
    Removing stm32f1xx_hal_usart.o(i.USART_DMAError), (84 bytes).
    Removing stm32f1xx_hal_usart.o(i.USART_DMAReceiveCplt), (128 bytes).
    Removing stm32f1xx_hal_usart.o(i.USART_DMARxAbortCallback), (48 bytes).
    Removing stm32f1xx_hal_usart.o(i.USART_DMARxHalfCplt), (14 bytes).
    Removing stm32f1xx_hal_usart.o(i.USART_DMATransmitCplt), (70 bytes).
    Removing stm32f1xx_hal_usart.o(i.USART_DMATxAbortCallback), (48 bytes).
    Removing stm32f1xx_hal_usart.o(i.USART_DMATxHalfCplt), (14 bytes).
    Removing stm32f1xx_hal_usart.o(i.USART_EndRxTransfer), (32 bytes).
    Removing stm32f1xx_hal_usart.o(i.USART_EndTransmit_IT), (44 bytes).
    Removing stm32f1xx_hal_usart.o(i.USART_EndTxTransfer), (20 bytes).
    Removing stm32f1xx_hal_usart.o(i.USART_Receive_IT), (194 bytes).
    Removing stm32f1xx_hal_usart.o(i.USART_SetConfig), (312 bytes).
    Removing stm32f1xx_hal_usart.o(i.USART_TransmitReceive_IT), (270 bytes).
    Removing stm32f1xx_hal_usart.o(i.USART_Transmit_IT), (104 bytes).
    Removing stm32f1xx_hal_usart.o(i.USART_WaitOnFlagUntilTimeout), (128 bytes).
    Removing stm32f1xx_hal_flash.o(.rev16_text), (4 bytes).
    Removing stm32f1xx_hal_flash.o(.revsh_text), (4 bytes).
    Removing stm32f1xx_hal_flash.o(.rrx_text), (6 bytes).
    Removing stm32f1xx_hal_flash.o(i.FLASH_Program_HalfWord), (32 bytes).
    Removing stm32f1xx_hal_flash.o(i.FLASH_SetErrorCode), (132 bytes).
    Removing stm32f1xx_hal_flash.o(i.FLASH_WaitForLastOperation), (112 bytes).
    Removing stm32f1xx_hal_flash.o(i.HAL_FLASH_EndOfOperationCallback), (2 bytes).
    Removing stm32f1xx_hal_flash.o(i.HAL_FLASH_GetError), (12 bytes).
    Removing stm32f1xx_hal_flash.o(i.HAL_FLASH_IRQHandler), (384 bytes).
    Removing stm32f1xx_hal_flash.o(i.HAL_FLASH_Lock), (20 bytes).
    Removing stm32f1xx_hal_flash.o(i.HAL_FLASH_OB_Launch), (8 bytes).
    Removing stm32f1xx_hal_flash.o(i.HAL_FLASH_OB_Lock), (20 bytes).
    Removing stm32f1xx_hal_flash.o(i.HAL_FLASH_OB_Unlock), (44 bytes).
    Removing stm32f1xx_hal_flash.o(i.HAL_FLASH_OperationErrorCallback), (2 bytes).
    Removing stm32f1xx_hal_flash.o(i.HAL_FLASH_Program), (176 bytes).
    Removing stm32f1xx_hal_flash.o(i.HAL_FLASH_Program_IT), (124 bytes).
    Removing stm32f1xx_hal_flash.o(i.HAL_FLASH_Unlock), (48 bytes).
    Removing stm32f1xx_hal_flash.o(.bss), (32 bytes).
    Removing stm32f1xx_hal_flash_ex.o(.rev16_text), (4 bytes).
    Removing stm32f1xx_hal_flash_ex.o(.revsh_text), (4 bytes).
    Removing stm32f1xx_hal_flash_ex.o(.rrx_text), (6 bytes).
    Removing stm32f1xx_hal_flash_ex.o(i.FLASH_MassErase), (40 bytes).
    Removing stm32f1xx_hal_flash_ex.o(i.FLASH_OB_DisableWRP), (232 bytes).
    Removing stm32f1xx_hal_flash_ex.o(i.FLASH_OB_EnableWRP), (236 bytes).
    Removing stm32f1xx_hal_flash_ex.o(i.FLASH_OB_GetRDP), (28 bytes).
    Removing stm32f1xx_hal_flash_ex.o(i.FLASH_OB_GetUser), (16 bytes).
    Removing stm32f1xx_hal_flash_ex.o(i.FLASH_OB_GetWRP), (12 bytes).
    Removing stm32f1xx_hal_flash_ex.o(i.FLASH_OB_ProgramData), (76 bytes).
    Removing stm32f1xx_hal_flash_ex.o(i.FLASH_OB_RDP_LevelConfig), (124 bytes).
    Removing stm32f1xx_hal_flash_ex.o(i.FLASH_OB_UserConfig), (84 bytes).
    Removing stm32f1xx_hal_flash_ex.o(i.FLASH_PageErase), (40 bytes).
    Removing stm32f1xx_hal_flash_ex.o(i.HAL_FLASHEx_Erase), (176 bytes).
    Removing stm32f1xx_hal_flash_ex.o(i.HAL_FLASHEx_Erase_IT), (100 bytes).
    Removing stm32f1xx_hal_flash_ex.o(i.HAL_FLASHEx_OBErase), (96 bytes).
    Removing stm32f1xx_hal_flash_ex.o(i.HAL_FLASHEx_OBGetConfig), (28 bytes).
    Removing stm32f1xx_hal_flash_ex.o(i.HAL_FLASHEx_OBGetUserData), (40 bytes).
    Removing stm32f1xx_hal_flash_ex.o(i.HAL_FLASHEx_OBProgram), (200 bytes).
    Removing system_stm32f1xx.o(.rev16_text), (4 bytes).
    Removing system_stm32f1xx.o(.revsh_text), (4 bytes).
    Removing system_stm32f1xx.o(.rrx_text), (6 bytes).
    Removing system_stm32f1xx.o(i.SystemCoreClockUpdate), (164 bytes).
    Removing startup_stm32f103xe.o(HEAP), (2048 bytes).
    Removing stm32f1xx_hal_spi.o(.rev16_text), (4 bytes).
    Removing stm32f1xx_hal_spi.o(.revsh_text), (4 bytes).
    Removing stm32f1xx_hal_spi.o(.rrx_text), (6 bytes).
    Removing stm32f1xx_hal_spi.o(i.HAL_SPI_Abort), (240 bytes).
    Removing stm32f1xx_hal_spi.o(i.HAL_SPI_AbortCpltCallback), (2 bytes).
    Removing stm32f1xx_hal_spi.o(i.HAL_SPI_Abort_IT), (296 bytes).
    Removing stm32f1xx_hal_spi.o(i.HAL_SPI_DMAPause), (50 bytes).
    Removing stm32f1xx_hal_spi.o(i.HAL_SPI_DMAResume), (50 bytes).
    Removing stm32f1xx_hal_spi.o(i.HAL_SPI_DMAStop), (46 bytes).
    Removing stm32f1xx_hal_spi.o(i.HAL_SPI_DeInit), (54 bytes).
    Removing stm32f1xx_hal_spi.o(i.HAL_SPI_ErrorCallback), (2 bytes).
    Removing stm32f1xx_hal_spi.o(i.HAL_SPI_GetError), (6 bytes).
    Removing stm32f1xx_hal_spi.o(i.HAL_SPI_GetState), (8 bytes).
    Removing stm32f1xx_hal_spi.o(i.HAL_SPI_IRQHandler), (280 bytes).
    Removing stm32f1xx_hal_spi.o(i.HAL_SPI_Init), (154 bytes).
    Removing stm32f1xx_hal_spi.o(i.HAL_SPI_MspDeInit), (2 bytes).
    Removing stm32f1xx_hal_spi.o(i.HAL_SPI_Receive), (586 bytes).
    Removing stm32f1xx_hal_spi.o(i.HAL_SPI_Receive_DMA), (288 bytes).
    Removing stm32f1xx_hal_spi.o(i.HAL_SPI_Receive_IT), (240 bytes).
    Removing stm32f1xx_hal_spi.o(i.HAL_SPI_RxCpltCallback), (2 bytes).
    Removing stm32f1xx_hal_spi.o(i.HAL_SPI_RxHalfCpltCallback), (2 bytes).
    Removing stm32f1xx_hal_spi.o(i.HAL_SPI_Transmit), (480 bytes).
    Removing stm32f1xx_hal_spi.o(i.HAL_SPI_TransmitReceive), (756 bytes).
    Removing stm32f1xx_hal_spi.o(i.HAL_SPI_TransmitReceive_DMA), (360 bytes).
    Removing stm32f1xx_hal_spi.o(i.HAL_SPI_TransmitReceive_IT), (248 bytes).
    Removing stm32f1xx_hal_spi.o(i.HAL_SPI_Transmit_DMA), (260 bytes).
    Removing stm32f1xx_hal_spi.o(i.HAL_SPI_Transmit_IT), (224 bytes).
    Removing stm32f1xx_hal_spi.o(i.HAL_SPI_TxCpltCallback), (2 bytes).
    Removing stm32f1xx_hal_spi.o(i.HAL_SPI_TxHalfCpltCallback), (2 bytes).
    Removing stm32f1xx_hal_spi.o(i.HAL_SPI_TxRxCpltCallback), (2 bytes).
    Removing stm32f1xx_hal_spi.o(i.HAL_SPI_TxRxHalfCpltCallback), (2 bytes).
    Removing stm32f1xx_hal_spi.o(i.SPI_2linesRxISR_16BIT), (72 bytes).
    Removing stm32f1xx_hal_spi.o(i.SPI_2linesRxISR_16BITCRC), (40 bytes).
    Removing stm32f1xx_hal_spi.o(i.SPI_2linesRxISR_8BIT), (72 bytes).
    Removing stm32f1xx_hal_spi.o(i.SPI_2linesRxISR_8BITCRC), (42 bytes).
    Removing stm32f1xx_hal_spi.o(i.SPI_2linesTxISR_16BIT), (88 bytes).
    Removing stm32f1xx_hal_spi.o(i.SPI_2linesTxISR_8BIT), (86 bytes).
    Removing stm32f1xx_hal_spi.o(i.SPI_AbortRx_ISR), (104 bytes).
    Removing stm32f1xx_hal_spi.o(i.SPI_AbortTx_ISR), (26 bytes).
    Removing stm32f1xx_hal_spi.o(i.SPI_CheckFlag_BSY), (40 bytes).
    Removing stm32f1xx_hal_spi.o(i.SPI_CloseRxTx_ISR), (268 bytes).
    Removing stm32f1xx_hal_spi.o(i.SPI_CloseRx_ISR), (180 bytes).
    Removing stm32f1xx_hal_spi.o(i.SPI_CloseTx_ISR), (160 bytes).
    Removing stm32f1xx_hal_spi.o(i.SPI_DMAAbortOnError), (20 bytes).
    Removing stm32f1xx_hal_spi.o(i.SPI_DMAError), (40 bytes).
    Removing stm32f1xx_hal_spi.o(i.SPI_DMAHalfReceiveCplt), (14 bytes).
    Removing stm32f1xx_hal_spi.o(i.SPI_DMAHalfTransmitCplt), (14 bytes).
    Removing stm32f1xx_hal_spi.o(i.SPI_DMAHalfTransmitReceiveCplt), (14 bytes).
    Removing stm32f1xx_hal_spi.o(i.SPI_DMAReceiveCplt), (220 bytes).
    Removing stm32f1xx_hal_spi.o(i.SPI_DMARxAbortCallback), (92 bytes).
    Removing stm32f1xx_hal_spi.o(i.SPI_DMATransmitCplt), (116 bytes).
    Removing stm32f1xx_hal_spi.o(i.SPI_DMATransmitReceiveCplt), (206 bytes).
    Removing stm32f1xx_hal_spi.o(i.SPI_DMATxAbortCallback), (124 bytes).
    Removing stm32f1xx_hal_spi.o(i.SPI_ISCRCErrorValid), (6 bytes).
    Removing stm32f1xx_hal_spi.o(i.SPI_RxISR_16BIT), (84 bytes).
    Removing stm32f1xx_hal_spi.o(i.SPI_RxISR_16BITCRC), (40 bytes).
    Removing stm32f1xx_hal_spi.o(i.SPI_RxISR_8BIT), (80 bytes).
    Removing stm32f1xx_hal_spi.o(i.SPI_RxISR_8BITCRC), (26 bytes).
    Removing stm32f1xx_hal_spi.o(i.SPI_TxISR_16BIT), (56 bytes).
    Removing stm32f1xx_hal_spi.o(i.SPI_TxISR_8BIT), (54 bytes).
    Removing stm32f1xx_hal_spi.o(i.SPI_WaitFlagStateUntilTimeout), (170 bytes).
    Removing stm32f1xx_hal_spi_ex.o(.rev16_text), (4 bytes).
    Removing stm32f1xx_hal_spi_ex.o(.revsh_text), (4 bytes).
    Removing stm32f1xx_hal_spi_ex.o(.rrx_text), (6 bytes).
    Removing stm32f1xx_hal_spi_ex.o(i.SPI_ISCRCErrorValid), (40 bytes).
    Removing dadd.o(.text), (334 bytes).
    Removing dmul.o(.text), (228 bytes).
    Removing ddiv.o(.text), (222 bytes).
    Removing dfixul.o(.text), (48 bytes).
    Removing cdrcmple.o(.text), (48 bytes).
    Removing depilogue.o(.text), (186 bytes).

641 unused section(s) (total 57782 bytes) removed from the image.

==============================================================================

Image Symbol Table

    Local Symbols

    Symbol Name                              Value     Ov Type        Size  Object(Section)

    ../clib/../cmprslib/zerorunl2.c          0x00000000   Number         0  __dczerorl2.o ABSOLUTE
    ../clib/microlib/division.c              0x00000000   Number         0  uidiv.o ABSOLUTE
    ../clib/microlib/division.c              0x00000000   Number         0  uldiv.o ABSOLUTE
    ../clib/microlib/init/entry.s            0x00000000   Number         0  entry7a.o ABSOLUTE
    ../clib/microlib/init/entry.s            0x00000000   Number         0  entry8b.o ABSOLUTE
    ../clib/microlib/init/entry.s            0x00000000   Number         0  entry2.o ABSOLUTE
    ../clib/microlib/init/entry.s            0x00000000   Number         0  entry8a.o ABSOLUTE
    ../clib/microlib/init/entry.s            0x00000000   Number         0  entry11a.o ABSOLUTE
    ../clib/microlib/init/entry.s            0x00000000   Number         0  entry11b.o ABSOLUTE
    ../clib/microlib/init/entry.s            0x00000000   Number         0  entry7b.o ABSOLUTE
    ../clib/microlib/init/entry.s            0x00000000   Number         0  entry5.o ABSOLUTE
    ../clib/microlib/init/entry.s            0x00000000   Number         0  entry9a.o ABSOLUTE
    ../clib/microlib/init/entry.s            0x00000000   Number         0  entry9b.o ABSOLUTE
    ../clib/microlib/init/entry.s            0x00000000   Number         0  entry.o ABSOLUTE
    ../clib/microlib/init/entry.s            0x00000000   Number         0  entry10a.o ABSOLUTE
    ../clib/microlib/init/entry.s            0x00000000   Number         0  entry10b.o ABSOLUTE
    ../clib/microlib/longlong.c              0x00000000   Number         0  llsshr.o ABSOLUTE
    ../clib/microlib/longlong.c              0x00000000   Number         0  llushr.o ABSOLUTE
    ../clib/microlib/longlong.c              0x00000000   Number         0  llshl.o ABSOLUTE
    ../clib/microlib/printf/printf.c         0x00000000   Number         0  printf2.o ABSOLUTE
    ../clib/microlib/printf/printf.c         0x00000000   Number         0  printf0.o ABSOLUTE
    ../clib/microlib/printf/printf.c         0x00000000   Number         0  printf8.o ABSOLUTE
    ../clib/microlib/printf/printf.c         0x00000000   Number         0  printfb.o ABSOLUTE
    ../clib/microlib/printf/printf.c         0x00000000   Number         0  printfa.o ABSOLUTE
    ../clib/microlib/printf/printf.c         0x00000000   Number         0  printf7.o ABSOLUTE
    ../clib/microlib/printf/printf.c         0x00000000   Number         0  printf6.o ABSOLUTE
    ../clib/microlib/printf/printf.c         0x00000000   Number         0  printf5.o ABSOLUTE
    ../clib/microlib/printf/printf.c         0x00000000   Number         0  printf1.o ABSOLUTE
    ../clib/microlib/printf/printf.c         0x00000000   Number         0  printf4.o ABSOLUTE
    ../clib/microlib/printf/printf.c         0x00000000   Number         0  printf3.o ABSOLUTE
    ../clib/microlib/printf/stubs.s          0x00000000   Number         0  stubs.o ABSOLUTE
    ../clib/microlib/stdio/streams.c         0x00000000   Number         0  stdout.o ABSOLUTE
    ../clib/microlib/string/memset.c         0x00000000   Number         0  memseta.o ABSOLUTE
    ../clib/microlib/stubs.s                 0x00000000   Number         0  iusefp.o ABSOLUTE
    ../fplib/microlib/fpadd.c                0x00000000   Number         0  dadd.o ABSOLUTE
    ../fplib/microlib/fpdiv.c                0x00000000   Number         0  ddiv.o ABSOLUTE
    ../fplib/microlib/fpepilogue.c           0x00000000   Number         0  depilogue.o ABSOLUTE
    ../fplib/microlib/fpfix.c                0x00000000   Number         0  dfixul.o ABSOLUTE
    ../fplib/microlib/fpmul.c                0x00000000   Number         0  dmul.o ABSOLUTE
    ..\..\components\co_CRC.c                0x00000000   Number         0  co_crc.o ABSOLUTE
    ..\..\components\gpio_i2c\co_gpio_iic_1.c 0x00000000   Number         0  co_gpio_iic_1.o ABSOLUTE
    ..\..\components\key\co_key.c            0x00000000   Number         0  co_key.o ABSOLUTE
    ..\..\components\os\os_fifo.c            0x00000000   Number         0  os_fifo.o ABSOLUTE
    ..\..\components\os\os_heap.c            0x00000000   Number         0  os_heap.o ABSOLUTE
    ..\..\components\os\os_ipc_msg.c         0x00000000   Number         0  os_ipc_msg.o ABSOLUTE
    ..\..\components\os\os_simlist.c         0x00000000   Number         0  os_simlist.o ABSOLUTE
    ..\..\components\os\os_task.c            0x00000000   Number         0  os_task.o ABSOLUTE
    ..\..\components\os\os_timer.c           0x00000000   Number         0  os_timer.o ABSOLUTE
    ..\..\components\packet\co_packet.c      0x00000000   Number         0  co_packet.o ABSOLUTE
    ..\..\drivers\mcu\CMSIS\Device\ST\STM32F1xx\Source\Templates\arm\startup_stm32f103xe.s 0x00000000   Number         0  startup_stm32f103xe.o ABSOLUTE
    ..\..\drivers\mcu\CMSIS\Device\ST\STM32F1xx\Source\Templates\system_stm32f1xx.c 0x00000000   Number         0  system_stm32f1xx.o ABSOLUTE
    ..\..\drivers\mcu\STM32F1xx_HAL_Driver\Src\stm32f1xx_hal.c 0x00000000   Number         0  stm32f1xx_hal.o ABSOLUTE
    ..\..\drivers\mcu\STM32F1xx_HAL_Driver\Src\stm32f1xx_hal_adc.c 0x00000000   Number         0  stm32f1xx_hal_adc.o ABSOLUTE
    ..\..\drivers\mcu\STM32F1xx_HAL_Driver\Src\stm32f1xx_hal_adc_ex.c 0x00000000   Number         0  stm32f1xx_hal_adc_ex.o ABSOLUTE
    ..\..\drivers\mcu\STM32F1xx_HAL_Driver\Src\stm32f1xx_hal_can.c 0x00000000   Number         0  stm32f1xx_hal_can.o ABSOLUTE
    ..\..\drivers\mcu\STM32F1xx_HAL_Driver\Src\stm32f1xx_hal_cortex.c 0x00000000   Number         0  stm32f1xx_hal_cortex.o ABSOLUTE
    ..\..\drivers\mcu\STM32F1xx_HAL_Driver\Src\stm32f1xx_hal_dma.c 0x00000000   Number         0  stm32f1xx_hal_dma.o ABSOLUTE
    ..\..\drivers\mcu\STM32F1xx_HAL_Driver\Src\stm32f1xx_hal_flash.c 0x00000000   Number         0  stm32f1xx_hal_flash.o ABSOLUTE
    ..\..\drivers\mcu\STM32F1xx_HAL_Driver\Src\stm32f1xx_hal_flash_ex.c 0x00000000   Number         0  stm32f1xx_hal_flash_ex.o ABSOLUTE
    ..\..\drivers\mcu\STM32F1xx_HAL_Driver\Src\stm32f1xx_hal_gpio.c 0x00000000   Number         0  stm32f1xx_hal_gpio.o ABSOLUTE
    ..\..\drivers\mcu\STM32F1xx_HAL_Driver\Src\stm32f1xx_hal_gpio_ex.c 0x00000000   Number         0  stm32f1xx_hal_gpio_ex.o ABSOLUTE
    ..\..\drivers\mcu\STM32F1xx_HAL_Driver\Src\stm32f1xx_hal_iwdg.c 0x00000000   Number         0  stm32f1xx_hal_iwdg.o ABSOLUTE
    ..\..\drivers\mcu\STM32F1xx_HAL_Driver\Src\stm32f1xx_hal_pwr.c 0x00000000   Number         0  stm32f1xx_hal_pwr.o ABSOLUTE
    ..\..\drivers\mcu\STM32F1xx_HAL_Driver\Src\stm32f1xx_hal_rcc.c 0x00000000   Number         0  stm32f1xx_hal_rcc.o ABSOLUTE
    ..\..\drivers\mcu\STM32F1xx_HAL_Driver\Src\stm32f1xx_hal_rcc_ex.c 0x00000000   Number         0  stm32f1xx_hal_rcc_ex.o ABSOLUTE
    ..\..\drivers\mcu\STM32F1xx_HAL_Driver\Src\stm32f1xx_hal_spi.c 0x00000000   Number         0  stm32f1xx_hal_spi.o ABSOLUTE
    ..\..\drivers\mcu\STM32F1xx_HAL_Driver\Src\stm32f1xx_hal_spi_ex.c 0x00000000   Number         0  stm32f1xx_hal_spi_ex.o ABSOLUTE
    ..\..\drivers\mcu\STM32F1xx_HAL_Driver\Src\stm32f1xx_hal_tim.c 0x00000000   Number         0  stm32f1xx_hal_tim.o ABSOLUTE
    ..\..\drivers\mcu\STM32F1xx_HAL_Driver\Src\stm32f1xx_hal_tim_ex.c 0x00000000   Number         0  stm32f1xx_hal_tim_ex.o ABSOLUTE
    ..\..\drivers\mcu\STM32F1xx_HAL_Driver\Src\stm32f1xx_hal_uart.c 0x00000000   Number         0  stm32f1xx_hal_uart.o ABSOLUTE
    ..\..\drivers\mcu\STM32F1xx_HAL_Driver\Src\stm32f1xx_hal_usart.c 0x00000000   Number         0  stm32f1xx_hal_usart.o ABSOLUTE
    ..\..\drivers\mcu\hal_adc.c              0x00000000   Number         0  hal_adc.o ABSOLUTE
    ..\..\drivers\mcu\hal_can.c              0x00000000   Number         0  hal_can.o ABSOLUTE
    ..\..\drivers\mcu\hal_clk.c              0x00000000   Number         0  hal_clk.o ABSOLUTE
    ..\..\drivers\mcu\hal_dma.c              0x00000000   Number         0  hal_dma.o ABSOLUTE
    ..\..\drivers\mcu\hal_flash.c            0x00000000   Number         0  hal_flash.o ABSOLUTE
    ..\..\drivers\mcu\hal_gpio.c             0x00000000   Number         0  hal_gpio.o ABSOLUTE
    ..\..\drivers\mcu\hal_mcu.c              0x00000000   Number         0  hal_mcu.o ABSOLUTE
    ..\..\drivers\mcu\hal_spi.c              0x00000000   Number         0  hal_spi.o ABSOLUTE
    ..\..\drivers\mcu\hal_timer.c            0x00000000   Number         0  hal_timer.o ABSOLUTE
    ..\..\drivers\mcu\hal_uart.c             0x00000000   Number         0  hal_uart.o ABSOLUTE
    ..\..\drivers\mcu\hal_wtd.c              0x00000000   Number         0  hal_wtd.o ABSOLUTE
    ..\..\drivers\modules\drv_afe.c          0x00000000   Number         0  drv_afe.o ABSOLUTE
    ..\..\drivers\modules\drv_ble.c          0x00000000   Number         0  drv_ble.o ABSOLUTE
    ..\..\drivers\modules\drv_can.c          0x00000000   Number         0  drv_can.o ABSOLUTE
    ..\..\drivers\modules\drv_ex_flash.c     0x00000000   Number         0  drv_ex_flash.o ABSOLUTE
    ..\..\drivers\modules\drv_gauge.c        0x00000000   Number         0  drv_gauge.o ABSOLUTE
    ..\..\drivers\modules\drv_key.c          0x00000000   Number         0  drv_key.o ABSOLUTE
    ..\..\drivers\modules\drv_led.c          0x00000000   Number         0  drv_led.o ABSOLUTE
    ..\..\drivers\modules\drv_power.c        0x00000000   Number         0  drv_power.o ABSOLUTE
    ..\..\drivers\modules\drv_print.c        0x00000000   Number         0  drv_print.o ABSOLUTE
    ..\..\user\bms_task.c                    0x00000000   Number         0  bms_task.o ABSOLUTE
    ..\..\user\can_task.c                    0x00000000   Number         0  can_task.o ABSOLUTE
    ..\..\user\main.c                        0x00000000   Number         0  main.o ABSOLUTE
    ..\..\user\user_protocol\flighter_batt_protocol.c 0x00000000   Number         0  flighter_batt_protocol.o ABSOLUTE
    ..\\..\\drivers\\mcu\\CMSIS\\Device\\ST\\STM32F1xx\\Source\\Templates\\system_stm32f1xx.c 0x00000000   Number         0  system_stm32f1xx.o ABSOLUTE
    ..\\..\\drivers\\mcu\\STM32F1xx_HAL_Driver\\Src\\stm32f1xx_hal.c 0x00000000   Number         0  stm32f1xx_hal.o ABSOLUTE
    ..\\..\\drivers\\mcu\\STM32F1xx_HAL_Driver\\Src\\stm32f1xx_hal_adc.c 0x00000000   Number         0  stm32f1xx_hal_adc.o ABSOLUTE
    ..\\..\\drivers\\mcu\\STM32F1xx_HAL_Driver\\Src\\stm32f1xx_hal_adc_ex.c 0x00000000   Number         0  stm32f1xx_hal_adc_ex.o ABSOLUTE
    ..\\..\\drivers\\mcu\\STM32F1xx_HAL_Driver\\Src\\stm32f1xx_hal_can.c 0x00000000   Number         0  stm32f1xx_hal_can.o ABSOLUTE
    ..\\..\\drivers\\mcu\\STM32F1xx_HAL_Driver\\Src\\stm32f1xx_hal_cortex.c 0x00000000   Number         0  stm32f1xx_hal_cortex.o ABSOLUTE
    ..\\..\\drivers\\mcu\\STM32F1xx_HAL_Driver\\Src\\stm32f1xx_hal_dma.c 0x00000000   Number         0  stm32f1xx_hal_dma.o ABSOLUTE
    ..\\..\\drivers\\mcu\\STM32F1xx_HAL_Driver\\Src\\stm32f1xx_hal_flash.c 0x00000000   Number         0  stm32f1xx_hal_flash.o ABSOLUTE
    ..\\..\\drivers\\mcu\\STM32F1xx_HAL_Driver\\Src\\stm32f1xx_hal_flash_ex.c 0x00000000   Number         0  stm32f1xx_hal_flash_ex.o ABSOLUTE
    ..\\..\\drivers\\mcu\\STM32F1xx_HAL_Driver\\Src\\stm32f1xx_hal_gpio.c 0x00000000   Number         0  stm32f1xx_hal_gpio.o ABSOLUTE
    ..\\..\\drivers\\mcu\\STM32F1xx_HAL_Driver\\Src\\stm32f1xx_hal_gpio_ex.c 0x00000000   Number         0  stm32f1xx_hal_gpio_ex.o ABSOLUTE
    ..\\..\\drivers\\mcu\\STM32F1xx_HAL_Driver\\Src\\stm32f1xx_hal_iwdg.c 0x00000000   Number         0  stm32f1xx_hal_iwdg.o ABSOLUTE
    ..\\..\\drivers\\mcu\\STM32F1xx_HAL_Driver\\Src\\stm32f1xx_hal_pwr.c 0x00000000   Number         0  stm32f1xx_hal_pwr.o ABSOLUTE
    ..\\..\\drivers\\mcu\\STM32F1xx_HAL_Driver\\Src\\stm32f1xx_hal_rcc.c 0x00000000   Number         0  stm32f1xx_hal_rcc.o ABSOLUTE
    ..\\..\\drivers\\mcu\\STM32F1xx_HAL_Driver\\Src\\stm32f1xx_hal_rcc_ex.c 0x00000000   Number         0  stm32f1xx_hal_rcc_ex.o ABSOLUTE
    ..\\..\\drivers\\mcu\\STM32F1xx_HAL_Driver\\Src\\stm32f1xx_hal_spi.c 0x00000000   Number         0  stm32f1xx_hal_spi.o ABSOLUTE
    ..\\..\\drivers\\mcu\\STM32F1xx_HAL_Driver\\Src\\stm32f1xx_hal_spi_ex.c 0x00000000   Number         0  stm32f1xx_hal_spi_ex.o ABSOLUTE
    ..\\..\\drivers\\mcu\\STM32F1xx_HAL_Driver\\Src\\stm32f1xx_hal_tim.c 0x00000000   Number         0  stm32f1xx_hal_tim.o ABSOLUTE
    ..\\..\\drivers\\mcu\\STM32F1xx_HAL_Driver\\Src\\stm32f1xx_hal_tim_ex.c 0x00000000   Number         0  stm32f1xx_hal_tim_ex.o ABSOLUTE
    ..\\..\\drivers\\mcu\\STM32F1xx_HAL_Driver\\Src\\stm32f1xx_hal_uart.c 0x00000000   Number         0  stm32f1xx_hal_uart.o ABSOLUTE
    ..\\..\\drivers\\mcu\\STM32F1xx_HAL_Driver\\Src\\stm32f1xx_hal_usart.c 0x00000000   Number         0  stm32f1xx_hal_usart.o ABSOLUTE
    ..\\..\\drivers\\mcu\\hal_adc.c          0x00000000   Number         0  hal_adc.o ABSOLUTE
    ..\\..\\drivers\\mcu\\hal_can.c          0x00000000   Number         0  hal_can.o ABSOLUTE
    ..\\..\\drivers\\mcu\\hal_clk.c          0x00000000   Number         0  hal_clk.o ABSOLUTE
    ..\\..\\drivers\\mcu\\hal_dma.c          0x00000000   Number         0  hal_dma.o ABSOLUTE
    ..\\..\\drivers\\mcu\\hal_flash.c        0x00000000   Number         0  hal_flash.o ABSOLUTE
    ..\\..\\drivers\\mcu\\hal_gpio.c         0x00000000   Number         0  hal_gpio.o ABSOLUTE
    ..\\..\\drivers\\mcu\\hal_mcu.c          0x00000000   Number         0  hal_mcu.o ABSOLUTE
    ..\\..\\drivers\\mcu\\hal_spi.c          0x00000000   Number         0  hal_spi.o ABSOLUTE
    ..\\..\\drivers\\mcu\\hal_timer.c        0x00000000   Number         0  hal_timer.o ABSOLUTE
    ..\\..\\drivers\\mcu\\hal_uart.c         0x00000000   Number         0  hal_uart.o ABSOLUTE
    ..\\..\\drivers\\mcu\\hal_wtd.c          0x00000000   Number         0  hal_wtd.o ABSOLUTE
    cdrcmple.s                               0x00000000   Number         0  cdrcmple.o ABSOLUTE
    dc.s                                     0x00000000   Number         0  dc.o ABSOLUTE
    handlers.s                               0x00000000   Number         0  handlers.o ABSOLUTE
    init.s                                   0x00000000   Number         0  init.o ABSOLUTE
    RESET                                    0x08008000   Section      304  startup_stm32f103xe.o(RESET)
    .ARM.Collect$$$$00000000                 0x08008130   Section        0  entry.o(.ARM.Collect$$$$00000000)
    .ARM.Collect$$$$00000001                 0x08008130   Section        4  entry2.o(.ARM.Collect$$$$00000001)
    .ARM.Collect$$$$00000004                 0x08008134   Section        4  entry5.o(.ARM.Collect$$$$00000004)
    .ARM.Collect$$$$00000008                 0x08008138   Section        0  entry7b.o(.ARM.Collect$$$$00000008)
    .ARM.Collect$$$$0000000A                 0x08008138   Section        0  entry8b.o(.ARM.Collect$$$$0000000A)
    .ARM.Collect$$$$0000000B                 0x08008138   Section        8  entry9a.o(.ARM.Collect$$$$0000000B)
    .ARM.Collect$$$$0000000D                 0x08008140   Section        0  entry10a.o(.ARM.Collect$$$$0000000D)
    .ARM.Collect$$$$0000000F                 0x08008140   Section        0  entry11a.o(.ARM.Collect$$$$0000000F)
    .ARM.Collect$$$$00002712                 0x08008140   Section        4  entry2.o(.ARM.Collect$$$$00002712)
    __lit__00000000                          0x08008140   Data           4  entry2.o(.ARM.Collect$$$$00002712)
    .text                                    0x08008144   Section       36  startup_stm32f103xe.o(.text)
    .text                                    0x08008168   Section        0  llushr.o(.text)
    .text                                    0x08008188   Section        0  memseta.o(.text)
    .text                                    0x080081ac   Section        0  uldiv.o(.text)
    .text                                    0x08008210   Section       36  init.o(.text)
    .text                                    0x08008234   Section        0  llshl.o(.text)
    .text                                    0x08008252   Section        0  __dczerorl2.o(.text)
    i.CAN1_RX1_IRQHandler                    0x080082a8   Section        0  hal_can.o(i.CAN1_RX1_IRQHandler)
    i.CAN1_SCE_IRQHandler                    0x080082b8   Section        0  hal_can.o(i.CAN1_SCE_IRQHandler)
    i.CAN_Receive_IT                         0x080082c8   Section        0  stm32f1xx_hal_can.o(i.CAN_Receive_IT)
    CAN_Receive_IT                           0x080082c9   Thumb Code   450  stm32f1xx_hal_can.o(i.CAN_Receive_IT)
    i.CAN_Transmit_IT                        0x0800848a   Section        0  stm32f1xx_hal_can.o(i.CAN_Transmit_IT)
    CAN_Transmit_IT                          0x0800848b   Thumb Code    98  stm32f1xx_hal_can.o(i.CAN_Transmit_IT)
    i.HAL_CAN_ConfigFilter                   0x080084ec   Section        0  stm32f1xx_hal_can.o(i.HAL_CAN_ConfigFilter)
    i.HAL_CAN_DeInit                         0x08008610   Section        0  stm32f1xx_hal_can.o(i.HAL_CAN_DeInit)
    i.HAL_CAN_ErrorCallback                  0x08008638   Section        0  stm32f1xx_hal_can.o(i.HAL_CAN_ErrorCallback)
    i.HAL_CAN_IRQHandler                     0x0800863c   Section        0  stm32f1xx_hal_can.o(i.HAL_CAN_IRQHandler)
    i.HAL_CAN_Init                           0x08008890   Section        0  stm32f1xx_hal_can.o(i.HAL_CAN_Init)
    i.HAL_CAN_MspDeInit                      0x080089fe   Section        0  stm32f1xx_hal_can.o(i.HAL_CAN_MspDeInit)
    i.HAL_CAN_MspInit                        0x08008a00   Section        0  stm32f1xx_hal_can.o(i.HAL_CAN_MspInit)
    i.HAL_CAN_RxCpltCallback                 0x08008a02   Section        0  stm32f1xx_hal_can.o(i.HAL_CAN_RxCpltCallback)
    i.HAL_CAN_TxCpltCallback                 0x08008a04   Section        0  stm32f1xx_hal_can.o(i.HAL_CAN_TxCpltCallback)
    i.HAL_GPIO_Init                          0x08008a08   Section        0  stm32f1xx_hal_gpio.o(i.HAL_GPIO_Init)
    i.HAL_GPIO_ReadPin                       0x08008d48   Section        0  stm32f1xx_hal_gpio.o(i.HAL_GPIO_ReadPin)
    i.HAL_GPIO_TogglePin                     0x08008d58   Section        0  stm32f1xx_hal_gpio.o(i.HAL_GPIO_TogglePin)
    i.HAL_GPIO_WritePin                      0x08008d60   Section        0  stm32f1xx_hal_gpio.o(i.HAL_GPIO_WritePin)
    i.HAL_GetTick                            0x08008d6c   Section        0  stm32f1xx_hal.o(i.HAL_GetTick)
    i.HAL_IncTick                            0x08008d78   Section        0  stm32f1xx_hal.o(i.HAL_IncTick)
    i.HAL_Init                               0x08008d90   Section        0  stm32f1xx_hal.o(i.HAL_Init)
    i.HAL_InitTick                           0x08008e08   Section        0  stm32f1xx_hal.o(i.HAL_InitTick)
    i.HAL_MspInit                            0x08008e54   Section        0  stm32f1xx_hal.o(i.HAL_MspInit)
    i.HAL_NVIC_EnableIRQ                     0x08008e56   Section        0  stm32f1xx_hal_cortex.o(i.HAL_NVIC_EnableIRQ)
    i.HAL_NVIC_SetPriority                   0x08008e70   Section        0  stm32f1xx_hal_cortex.o(i.HAL_NVIC_SetPriority)
    i.HAL_NVIC_SetPriorityGrouping           0x08008eec   Section        0  stm32f1xx_hal_cortex.o(i.HAL_NVIC_SetPriorityGrouping)
    i.HAL_RCCEx_PeriphCLKConfig              0x08008f14   Section        0  stm32f1xx_hal_rcc_ex.o(i.HAL_RCCEx_PeriphCLKConfig)
    i.HAL_RCC_ClockConfig                    0x08009044   Section        0  stm32f1xx_hal_rcc.o(i.HAL_RCC_ClockConfig)
    i.HAL_RCC_GetHCLKFreq                    0x080091e8   Section        0  stm32f1xx_hal_rcc.o(i.HAL_RCC_GetHCLKFreq)
    i.HAL_RCC_GetPCLK1Freq                   0x080091f4   Section        0  stm32f1xx_hal_rcc.o(i.HAL_RCC_GetPCLK1Freq)
    i.HAL_RCC_GetPCLK2Freq                   0x08009214   Section        0  stm32f1xx_hal_rcc.o(i.HAL_RCC_GetPCLK2Freq)
    i.HAL_RCC_GetSysClockFreq                0x08009234   Section        0  stm32f1xx_hal_rcc.o(i.HAL_RCC_GetSysClockFreq)
    i.HAL_RCC_OscConfig                      0x080092c8   Section        0  stm32f1xx_hal_rcc.o(i.HAL_RCC_OscConfig)
    i.HAL_SPI_Init                           0x08009708   Section        0  stm32f1xx_hal_spi_ex.o(i.HAL_SPI_Init)
    i.HAL_SPI_MspInit                        0x0800979c   Section        0  stm32f1xx_hal_spi.o(i.HAL_SPI_MspInit)
    i.HAL_SYSTICK_CLKSourceConfig            0x0800979e   Section        0  stm32f1xx_hal_cortex.o(i.HAL_SYSTICK_CLKSourceConfig)
    i.HAL_SYSTICK_Config                     0x080097c6   Section        0  stm32f1xx_hal_cortex.o(i.HAL_SYSTICK_Config)
    i.HAL_TIM_Base_Init                      0x080097fa   Section        0  stm32f1xx_hal_tim.o(i.HAL_TIM_Base_Init)
    i.HAL_TIM_Base_MspInit                   0x0800982e   Section        0  stm32f1xx_hal_tim.o(i.HAL_TIM_Base_MspInit)
    i.HAL_UART_DeInit                        0x08009830   Section        0  stm32f1xx_hal_uart.o(i.HAL_UART_DeInit)
    i.HAL_UART_Init                          0x0800985e   Section        0  stm32f1xx_hal_uart.o(i.HAL_UART_Init)
    i.HAL_UART_MspDeInit                     0x080098d0   Section        0  stm32f1xx_hal_uart.o(i.HAL_UART_MspDeInit)
    i.HAL_UART_MspInit                       0x080098d2   Section        0  stm32f1xx_hal_uart.o(i.HAL_UART_MspInit)
    i.HardFault_Handler                      0x080098d4   Section        0  hal_mcu.o(i.HardFault_Handler)
    i.NMI_Handler                            0x080098d8   Section        0  hal_mcu.o(i.NMI_Handler)
    i.NVIC_GetPriorityGrouping               0x080098dc   Section        0  stm32f1xx_hal_cortex.o(i.NVIC_GetPriorityGrouping)
    NVIC_GetPriorityGrouping                 0x080098dd   Thumb Code    10  stm32f1xx_hal_cortex.o(i.NVIC_GetPriorityGrouping)
    i.NVIC_SetPriority                       0x080098ec   Section        0  stm32f1xx_hal_cortex.o(i.NVIC_SetPriority)
    NVIC_SetPriority                         0x080098ed   Thumb Code    32  stm32f1xx_hal_cortex.o(i.NVIC_SetPriority)
    i.PendSV_Handler                         0x08009914   Section        0  hal_mcu.o(i.PendSV_Handler)
    i.RCC_Delay                              0x08009918   Section        0  stm32f1xx_hal_rcc.o(i.RCC_Delay)
    RCC_Delay                                0x08009919   Thumb Code    36  stm32f1xx_hal_rcc.o(i.RCC_Delay)
    i.SVC_Handler                            0x08009940   Section        0  hal_mcu.o(i.SVC_Handler)
    i.SysTick_Handler                        0x08009944   Section        0  hal_mcu.o(i.SysTick_Handler)
    i.SystemInit                             0x0800995c   Section        0  system_stm32f1xx.o(i.SystemInit)
    i.TIM7_IRQHandler                        0x080099b4   Section        0  hal_timer.o(i.TIM7_IRQHandler)
    i.TIM_Base_SetConfig                     0x080099f4   Section        0  stm32f1xx_hal_tim.o(i.TIM_Base_SetConfig)
    i.UART_SetConfig                         0x08009a8c   Section        0  stm32f1xx_hal_uart.o(i.UART_SetConfig)
    UART_SetConfig                           0x08009a8d   Thumb Code   450  stm32f1xx_hal_uart.o(i.UART_SetConfig)
    i.USB_HP_CAN1_TX_IRQHandler              0x08009c54   Section        0  hal_can.o(i.USB_HP_CAN1_TX_IRQHandler)
    i.USB_LP_CAN1_RX0_IRQHandler             0x08009c64   Section        0  hal_can.o(i.USB_LP_CAN1_RX0_IRQHandler)
    i.__0printf$5                            0x08009ca4   Section        0  printf5.o(i.__0printf$5)
    i.__scatterload_copy                     0x08009cc4   Section       14  handlers.o(i.__scatterload_copy)
    i.__scatterload_null                     0x08009cd2   Section        2  handlers.o(i.__scatterload_null)
    i.__scatterload_zeroinit                 0x08009cd4   Section       14  handlers.o(i.__scatterload_zeroinit)
    i._printf_core                           0x08009ce4   Section        0  printf5.o(i._printf_core)
    _printf_core                             0x08009ce5   Thumb Code   658  printf5.o(i._printf_core)
    i.battery_to_flight_ack                  0x08009fa4   Section        0  can_task.o(i.battery_to_flight_ack)
    battery_to_flight_ack                    0x08009fa5   Thumb Code   118  can_task.o(i.battery_to_flight_ack)
    i.bms_task_create                        0x0800a020   Section        0  bms_task.o(i.bms_task_create)
    i.bms_task_main                          0x0800a0b0   Section        0  bms_task.o(i.bms_task_main)
    bms_task_main                            0x0800a0b1   Thumb Code    80  bms_task.o(i.bms_task_main)
    i.can_get_one_mailbox                    0x0800a108   Section        0  hal_can.o(i.can_get_one_mailbox)
    can_get_one_mailbox                      0x0800a109   Thumb Code    10  hal_can.o(i.can_get_one_mailbox)
    i.can_matrix_rx_id_mask_init             0x0800a118   Section        0  drv_can.o(i.can_matrix_rx_id_mask_init)
    can_matrix_rx_id_mask_init               0x0800a119   Thumb Code    16  drv_can.o(i.can_matrix_rx_id_mask_init)
    i.can_task_create                        0x0800a128   Section        0  can_task.o(i.can_task_create)
    i.can_task_main                          0x0800a1e0   Section        0  can_task.o(i.can_task_main)
    can_task_main                            0x0800a1e1   Thumb Code    16  can_task.o(i.can_task_main)
    i.can_task_matrix_process                0x0800a1f0   Section        0  can_task.o(i.can_task_matrix_process)
    can_task_matrix_process                  0x0800a1f1   Thumb Code    50  can_task.o(i.can_task_matrix_process)
    i.can_task_timer_callback                0x0800a228   Section        0  can_task.o(i.can_task_timer_callback)
    can_task_timer_callback                  0x0800a229   Thumb Code    50  can_task.o(i.can_task_timer_callback)
    i.co_pack_create                         0x0800a268   Section        0  co_packet.o(i.co_pack_create)
    i.co_pack_flush                          0x0800a2d0   Section        0  co_packet.o(i.co_pack_flush)
    i.co_pack_get_frame_point                0x0800a2e4   Section        0  co_packet.o(i.co_pack_get_frame_point)
    i.co_pack_get_one_frame                  0x0800a2f2   Section        0  co_packet.o(i.co_pack_get_one_frame)
    i.co_pack_set_dat                        0x0800a3c0   Section        0  co_packet.o(i.co_pack_set_dat)
    i.crc_ccitt_16_xmodem                    0x0800a3d8   Section        0  co_crc.o(i.crc_ccitt_16_xmodem)
    i.drv_can_matrix_init                    0x0800a408   Section        0  drv_can.o(i.drv_can_matrix_init)
    drv_can_matrix_init                      0x0800a409   Thumb Code    10  drv_can.o(i.drv_can_matrix_init)
    i.drv_can_matrix_rx_register             0x0800a418   Section        0  drv_can.o(i.drv_can_matrix_rx_register)
    drv_can_matrix_rx_register               0x0800a419   Thumb Code    10  drv_can.o(i.drv_can_matrix_rx_register)
    i.drv_can_power_off                      0x0800a428   Section        0  drv_can.o(i.drv_can_power_off)
    i.drv_can_power_on                       0x0800a434   Section        0  drv_can.o(i.drv_can_power_on)
    i.drv_can_rx_data_process                0x0800a440   Section        0  drv_can.o(i.drv_can_rx_data_process)
    drv_can_rx_data_process                  0x0800a441   Thumb Code    24  drv_can.o(i.drv_can_rx_data_process)
    i.drv_can_start                          0x0800a45c   Section        0  drv_can.o(i.drv_can_start)
    i.drv_can_write                          0x0800a47a   Section        0  drv_can.o(i.drv_can_write)
    i.drv_ex_flash_erase_sector              0x0800a49e   Section        0  drv_ex_flash.o(i.drv_ex_flash_erase_sector)
    i.drv_ex_flash_read_buff                 0x0800a502   Section        0  drv_ex_flash.o(i.drv_ex_flash_read_buff)
    i.drv_ex_flash_read_dev_id               0x0800a56e   Section        0  drv_ex_flash.o(i.drv_ex_flash_read_dev_id)
    i.drv_ex_flash_start                     0x0800a5c8   Section        0  drv_ex_flash.o(i.drv_ex_flash_start)
    i.drv_ex_flash_wp_disable                0x0800a690   Section        0  drv_ex_flash.o(i.drv_ex_flash_wp_disable)
    i.drv_ex_flash_write_buff                0x0800a69c   Section        0  drv_ex_flash.o(i.drv_ex_flash_write_buff)
    i.drv_key1_get_status                    0x0800a768   Section        0  drv_key.o(i.drv_key1_get_status)
    i.drv_key_polling                        0x0800a77c   Section        0  drv_key.o(i.drv_key_polling)
    drv_key_polling                          0x0800a77d   Thumb Code    34  drv_key.o(i.drv_key_polling)
    i.drv_key_scan_callback_register         0x0800a7a4   Section        0  drv_key.o(i.drv_key_scan_callback_register)
    i.drv_key_start                          0x0800a7d8   Section        0  drv_key.o(i.drv_key_start)
    i.drv_led3_off                           0x0800a80c   Section        0  drv_led.o(i.drv_led3_off)
    i.drv_led3_on                            0x0800a820   Section        0  drv_led.o(i.drv_led3_on)
    i.drv_led4_off                           0x0800a834   Section        0  drv_led.o(i.drv_led4_off)
    i.drv_led4_on                            0x0800a848   Section        0  drv_led.o(i.drv_led4_on)
    i.drv_led5_off                           0x0800a85c   Section        0  drv_led.o(i.drv_led5_off)
    i.drv_led5_on                            0x0800a870   Section        0  drv_led.o(i.drv_led5_on)
    i.drv_led6_off                           0x0800a884   Section        0  drv_led.o(i.drv_led6_off)
    i.drv_led6_on                            0x0800a898   Section        0  drv_led.o(i.drv_led6_on)
    i.drv_led_start                          0x0800a8ac   Section        0  drv_led.o(i.drv_led_start)
    i.drv_print_start                        0x0800a8d0   Section        0  drv_print.o(i.drv_print_start)
    i.ex_flash_cmd_write_disable             0x0800a8e2   Section        0  drv_ex_flash.o(i.ex_flash_cmd_write_disable)
    ex_flash_cmd_write_disable               0x0800a8e3   Thumb Code    26  drv_ex_flash.o(i.ex_flash_cmd_write_disable)
    i.ex_flash_cmd_write_enable              0x0800a8fc   Section        0  drv_ex_flash.o(i.ex_flash_cmd_write_enable)
    ex_flash_cmd_write_enable                0x0800a8fd   Thumb Code    26  drv_ex_flash.o(i.ex_flash_cmd_write_enable)
    i.ex_flash_disable                       0x0800a916   Section        0  drv_ex_flash.o(i.ex_flash_disable)
    ex_flash_disable                         0x0800a917   Thumb Code    12  drv_ex_flash.o(i.ex_flash_disable)
    i.ex_flash_enable                        0x0800a922   Section        0  drv_ex_flash.o(i.ex_flash_enable)
    ex_flash_enable                          0x0800a923   Thumb Code    12  drv_ex_flash.o(i.ex_flash_enable)
    i.ex_flash_read_sr_low8                  0x0800a92e   Section        0  drv_ex_flash.o(i.ex_flash_read_sr_low8)
    ex_flash_read_sr_low8                    0x0800a92f   Thumb Code    52  drv_ex_flash.o(i.ex_flash_read_sr_low8)
    i.ex_flash_wait_busy                     0x0800a962   Section        0  drv_ex_flash.o(i.ex_flash_wait_busy)
    ex_flash_wait_busy                       0x0800a963   Thumb Code    48  drv_ex_flash.o(i.ex_flash_wait_busy)
    i.ex_flash_write_nocheck                 0x0800a992   Section        0  drv_ex_flash.o(i.ex_flash_write_nocheck)
    ex_flash_write_nocheck                   0x0800a993   Thumb Code    78  drv_ex_flash.o(i.ex_flash_write_nocheck)
    i.ex_flash_write_page                    0x0800a9e0   Section        0  drv_ex_flash.o(i.ex_flash_write_page)
    ex_flash_write_page                      0x0800a9e1   Thumb Code   130  drv_ex_flash.o(i.ex_flash_write_page)
    i.f_b_active_flag_clear                  0x0800aa64   Section        0  flighter_batt_protocol.o(i.f_b_active_flag_clear)
    i.f_b_active_flag_get                    0x0800aa70   Section        0  flighter_batt_protocol.o(i.f_b_active_flag_get)
    i.f_b_active_flag_set                    0x0800aa7c   Section        0  flighter_batt_protocol.o(i.f_b_active_flag_set)
    f_b_active_flag_set                      0x0800aa7d   Thumb Code     8  flighter_batt_protocol.o(i.f_b_active_flag_set)
    i.f_b_frame_analyse_char                 0x0800aa88   Section        0  flighter_batt_protocol.o(i.f_b_frame_analyse_char)
    f_b_frame_analyse_char                   0x0800aa89   Thumb Code   190  flighter_batt_protocol.o(i.f_b_frame_analyse_char)
    i.f_b_frame_get_one_data                 0x0800ab4c   Section        0  flighter_batt_protocol.o(i.f_b_frame_get_one_data)
    i.f_b_frame_receiver_create              0x0800ab6c   Section        0  flighter_batt_protocol.o(i.f_b_frame_receiver_create)
    f_b_frame_receiver_create                0x0800ab6d   Thumb Code    28  flighter_batt_protocol.o(i.f_b_frame_receiver_create)
    i.f_b_frame_timeout_check                0x0800ab90   Section        0  flighter_batt_protocol.o(i.f_b_frame_timeout_check)
    f_b_frame_timeout_check                  0x0800ab91   Thumb Code     6  flighter_batt_protocol.o(i.f_b_frame_timeout_check)
    i.f_b_get_one_frame                      0x0800ab98   Section        0  flighter_batt_protocol.o(i.f_b_get_one_frame)
    i.f_b_protocol_create                    0x0800abac   Section        0  flighter_batt_protocol.o(i.f_b_protocol_create)
    i.f_b_protocol_process                   0x0800abd8   Section        0  flighter_batt_protocol.o(i.f_b_protocol_process)
    i.f_b_recv_active_action                 0x0800ac80   Section        0  flighter_batt_protocol.o(i.f_b_recv_active_action)
    f_b_recv_active_action                   0x0800ac81   Thumb Code   110  flighter_batt_protocol.o(i.f_b_recv_active_action)
    i.f_b_recv_serial_config_action          0x0800ad3c   Section        0  flighter_batt_protocol.o(i.f_b_recv_serial_config_action)
    f_b_recv_serial_config_action            0x0800ad3d   Thumb Code   280  flighter_batt_protocol.o(i.f_b_recv_serial_config_action)
    i.f_b_rx_serialnum_get                   0x0800ae80   Section        0  flighter_batt_protocol.o(i.f_b_rx_serialnum_get)
    i.f_b_save_serialnum_flag_clear          0x0800ae88   Section        0  flighter_batt_protocol.o(i.f_b_save_serialnum_flag_clear)
    i.f_b_save_serialnum_flag_get            0x0800ae94   Section        0  flighter_batt_protocol.o(i.f_b_save_serialnum_flag_get)
    i.f_b_save_serialnum_flag_set            0x0800aea0   Section        0  flighter_batt_protocol.o(i.f_b_save_serialnum_flag_set)
    f_b_save_serialnum_flag_set              0x0800aea1   Thumb Code     8  flighter_batt_protocol.o(i.f_b_save_serialnum_flag_set)
    i.fputc                                  0x0800aeac   Section        0  drv_print.o(i.fputc)
    i.hal_can_32bit_id_mask                  0x0800aebc   Section        0  hal_can.o(i.hal_can_32bit_id_mask)
    i.hal_can_get_empty_mailbox              0x0800af1c   Section        0  hal_can.o(i.hal_can_get_empty_mailbox)
    hal_can_get_empty_mailbox                0x0800af1d   Thumb Code    54  hal_can.o(i.hal_can_get_empty_mailbox)
    i.hal_can_init                           0x0800af54   Section        0  hal_can.o(i.hal_can_init)
    i.hal_can_read                           0x0800b044   Section        0  hal_can.o(i.hal_can_read)
    hal_can_read                             0x0800b045   Thumb Code   254  hal_can.o(i.hal_can_read)
    i.hal_can_read_msg                       0x0800b148   Section        0  hal_can.o(i.hal_can_read_msg)
    hal_can_read_msg                         0x0800b149   Thumb Code    56  hal_can.o(i.hal_can_read_msg)
    i.hal_can_rx_irq_callback_register       0x0800b188   Section        0  hal_can.o(i.hal_can_rx_irq_callback_register)
    hal_can_rx_irq_callback_register         0x0800b189   Thumb Code     6  hal_can.o(i.hal_can_rx_irq_callback_register)
    i.hal_can_send                           0x0800b194   Section        0  hal_can.o(i.hal_can_send)
    hal_can_send                             0x0800b195   Thumb Code   242  hal_can.o(i.hal_can_send)
    i.hal_can_send_msg                       0x0800b288   Section        0  hal_can.o(i.hal_can_send_msg)
    hal_can_send_msg                         0x0800b289   Thumb Code    88  hal_can.o(i.hal_can_send_msg)
    i.hal_can_set_baud                       0x0800b2e4   Section        0  hal_can.o(i.hal_can_set_baud)
    hal_can_set_baud                         0x0800b2e5   Thumb Code    86  hal_can.o(i.hal_can_set_baud)
    i.hal_can_set_id_mask                    0x0800b340   Section        0  hal_can.o(i.hal_can_set_id_mask)
    i.hal_can_set_rx_callback                0x0800b34c   Section        0  hal_can.o(i.hal_can_set_rx_callback)
    i.hal_can_write_msg                      0x0800b358   Section        0  hal_can.o(i.hal_can_write_msg)
    i.hal_clk_init                           0x0800b408   Section        0  hal_clk.o(i.hal_clk_init)
    i.hal_get_sys_freq                       0x0800b48a   Section        0  hal_mcu.o(i.hal_get_sys_freq)
    i.hal_get_tick                           0x0800b496   Section        0  hal_mcu.o(i.hal_get_tick)
    i.hal_gpio_ctrl                          0x0800b4a0   Section        0  hal_gpio.o(i.hal_gpio_ctrl)
    i.hal_gpio_init                          0x0800b4f8   Section        0  hal_gpio.o(i.hal_gpio_init)
    i.hal_gpio_read                          0x0800b5c4   Section        0  hal_gpio.o(i.hal_gpio_read)
    i.hal_gpio_write                         0x0800b5f0   Section        0  hal_gpio.o(i.hal_gpio_write)
    i.hal_mcu_common_init                    0x0800b65c   Section        0  hal_mcu.o(i.hal_mcu_common_init)
    i.hal_spi1_init                          0x0800b674   Section        0  hal_spi.o(i.hal_spi1_init)
    i.hal_spi1_read_byte                     0x0800b6e4   Section        0  hal_spi.o(i.hal_spi1_read_byte)
    i.hal_spi1_write_byte                    0x0800b73c   Section        0  hal_spi.o(i.hal_spi1_write_byte)
    i.hal_systick_update_callback_register   0x0800b794   Section        0  hal_mcu.o(i.hal_systick_update_callback_register)
    i.hal_timer7_init                        0x0800b7a0   Section        0  hal_timer.o(i.hal_timer7_init)
    i.hal_timer7_update_callback_register    0x0800b844   Section        0  hal_timer.o(i.hal_timer7_update_callback_register)
    i.hal_uart5_init                         0x0800b878   Section        0  hal_uart.o(i.hal_uart5_init)
    i.hal_uart5_putchar                      0x0800b90c   Section        0  hal_uart.o(i.hal_uart5_putchar)
    i.hw_led1_off                            0x0800b92c   Section        0  drv_led.o(i.hw_led1_off)
    hw_led1_off                              0x0800b92d   Thumb Code     2  drv_led.o(i.hw_led1_off)
    i.hw_led1_on                             0x0800b92e   Section        0  drv_led.o(i.hw_led1_on)
    hw_led1_on                               0x0800b92f   Thumb Code    92  drv_led.o(i.hw_led1_on)
    i.hw_led2_off                            0x0800b98a   Section        0  drv_led.o(i.hw_led2_off)
    hw_led2_off                              0x0800b98b   Thumb Code     2  drv_led.o(i.hw_led2_off)
    i.hw_led2_on                             0x0800b98c   Section        0  drv_led.o(i.hw_led2_on)
    hw_led2_on                               0x0800b98d   Thumb Code    92  drv_led.o(i.hw_led2_on)
    i.hw_led3_off                            0x0800b9e8   Section        0  drv_led.o(i.hw_led3_off)
    hw_led3_off                              0x0800b9e9   Thumb Code     2  drv_led.o(i.hw_led3_off)
    i.hw_led3_on                             0x0800b9ea   Section        0  drv_led.o(i.hw_led3_on)
    hw_led3_on                               0x0800b9eb   Thumb Code    72  drv_led.o(i.hw_led3_on)
    i.hw_led4_off                            0x0800ba32   Section        0  drv_led.o(i.hw_led4_off)
    hw_led4_off                              0x0800ba33   Thumb Code     2  drv_led.o(i.hw_led4_off)
    i.hw_led4_on                             0x0800ba34   Section        0  drv_led.o(i.hw_led4_on)
    hw_led4_on                               0x0800ba35   Thumb Code    72  drv_led.o(i.hw_led4_on)
    i.hw_led5_off                            0x0800ba7c   Section        0  drv_led.o(i.hw_led5_off)
    hw_led5_off                              0x0800ba7d   Thumb Code     2  drv_led.o(i.hw_led5_off)
    i.hw_led5_on                             0x0800ba7e   Section        0  drv_led.o(i.hw_led5_on)
    hw_led5_on                               0x0800ba7f   Thumb Code    72  drv_led.o(i.hw_led5_on)
    i.hw_led6_off                            0x0800bac6   Section        0  drv_led.o(i.hw_led6_off)
    hw_led6_off                              0x0800bac7   Thumb Code     2  drv_led.o(i.hw_led6_off)
    i.hw_led6_on                             0x0800bac8   Section        0  drv_led.o(i.hw_led6_on)
    hw_led6_on                               0x0800bac9   Thumb Code    72  drv_led.o(i.hw_led6_on)
    i.hw_led7_off                            0x0800bb10   Section        0  drv_led.o(i.hw_led7_off)
    hw_led7_off                              0x0800bb11   Thumb Code     2  drv_led.o(i.hw_led7_off)
    i.hw_led7_on                             0x0800bb12   Section        0  drv_led.o(i.hw_led7_on)
    hw_led7_on                               0x0800bb13   Thumb Code    92  drv_led.o(i.hw_led7_on)
    i.key1_scan                              0x0800bb70   Section        0  bms_task.o(i.key1_scan)
    key1_scan                                0x0800bb71   Thumb Code    18  bms_task.o(i.key1_scan)
    i.key_detect_polling                     0x0800bb88   Section        0  co_key.o(i.key_detect_polling)
    i.key_object_create                      0x0800bc0a   Section        0  co_key.o(i.key_object_create)
    i.key_object_read                        0x0800bc3e   Section        0  co_key.o(i.key_object_read)
    i.led_on_off_scan                        0x0800bc44   Section        0  drv_led.o(i.led_on_off_scan)
    led_on_off_scan                          0x0800bc45   Thumb Code   100  drv_led.o(i.led_on_off_scan)
    i.main                                   0x0800bcb8   Section        0  main.o(i.main)
    i.os_fifo_check_offset_dat               0x0800bdfc   Section        0  os_fifo.o(i.os_fifo_check_offset_dat)
    i.os_fifo_create                         0x0800be36   Section        0  os_fifo.o(i.os_fifo_create)
    i.os_fifo_flush                          0x0800be6a   Section        0  os_fifo.o(i.os_fifo_flush)
    i.os_fifo_flush_buf                      0x0800be70   Section        0  os_fifo.o(i.os_fifo_flush_buf)
    i.os_fifo_get_count                      0x0800bea2   Section        0  os_fifo.o(i.os_fifo_get_count)
    i.os_fifo_init                           0x0800beca   Section        0  os_fifo.o(i.os_fifo_init)
    i.os_fifo_push_dat                       0x0800bee4   Section        0  os_fifo.o(i.os_fifo_push_dat)
    i.os_free                                0x0800bf14   Section        0  os_heap.o(i.os_free)
    i.os_heap_allocate                       0x0800bf18   Section        0  os_heap.o(i.os_heap_allocate)
    os_heap_allocate                         0x0800bf19   Thumb Code    30  os_heap.o(i.os_heap_allocate)
    i.os_heap_init                           0x0800bf44   Section        0  os_heap.o(i.os_heap_init)
    i.os_insert_timer                        0x0800bf58   Section        0  os_timer.o(i.os_insert_timer)
    os_insert_timer                          0x0800bf59   Thumb Code    36  os_timer.o(i.os_insert_timer)
    i.os_malloc                              0x0800bf7c   Section        0  os_heap.o(i.os_malloc)
    i.os_task_create                         0x0800bfcc   Section        0  os_task.o(i.os_task_create)
    i.os_task_create_proc                    0x0800c018   Section        0  os_task.o(i.os_task_create_proc)
    os_task_create_proc                      0x0800c019   Thumb Code    48  os_task.o(i.os_task_create_proc)
    i.os_task_main                           0x0800c048   Section        0  os_task.o(i.os_task_main)
    i.os_task_tick_remap                     0x0800c090   Section        0  os_task.o(i.os_task_tick_remap)
    i.os_timer_create                        0x0800c09c   Section        0  os_timer.o(i.os_timer_create)
    i.os_timer_ctrl                          0x0800c104   Section        0  os_timer.o(i.os_timer_ctrl)
    i.os_timer_run                           0x0800c138   Section        0  os_timer.o(i.os_timer_run)
    i.save_battery_serial_number             0x0800c178   Section        0  can_task.o(i.save_battery_serial_number)
    save_battery_serial_number               0x0800c179   Thumb Code    82  can_task.o(i.save_battery_serial_number)
    i.send_info_to_flightor                  0x0800c208   Section        0  can_task.o(i.send_info_to_flightor)
    send_info_to_flightor                    0x0800c209   Thumb Code   184  can_task.o(i.send_info_to_flightor)
    i.user_can_rx_matrix_handle_register     0x0800c2d8   Section        0  drv_can.o(i.user_can_rx_matrix_handle_register)
    .constdata                               0x0800c2e4   Section      512  co_crc.o(.constdata)
    .constdata                               0x0800c4e4   Section      620  hal_gpio.o(.constdata)
    gpioConfigArray                          0x0800c4e4   Data         620  hal_gpio.o(.constdata)
    .constdata                               0x0800c750   Section      360  hal_can.o(.constdata)
    canBaudTable                             0x0800c750   Data         360  hal_can.o(.constdata)
    .constdata                               0x0800c8b8   Section       24  system_stm32f1xx.o(.constdata)
    .constdata                               0x0800c8d0   Section        8  can_task.o(.constdata)
    canProcessMatrix                         0x0800c8d0   Data           8  can_task.o(.constdata)
    .data                                    0x20000000   Section       12  os_heap.o(.data)
    heapBeginAddr                            0x20000000   Data           4  os_heap.o(.data)
    nextFreeByteIndex                        0x20000004   Data           4  os_heap.o(.data)
    heapTotalSize                            0x20000008   Data           4  os_heap.o(.data)
    .data                                    0x2000000c   Section        8  os_task.o(.data)
    ptTaskHandleList                         0x2000000c   Data           4  os_task.o(.data)
    ptOsTickHandle                           0x20000010   Data           4  os_task.o(.data)
    .data                                    0x20000014   Section        4  os_timer.o(.data)
    headOfTimerList                          0x20000014   Data           4  os_timer.o(.data)
    .data                                    0x20000018   Section        4  drv_can.o(.data)
    canRxMatrixFunc                          0x20000018   Data           4  drv_can.o(.data)
    .data                                    0x2000001c   Section        5  drv_key.o(.data)
    keyScanArray                             0x2000001c   Data           4  drv_key.o(.data)
    callNum                                  0x20000020   Data           1  drv_key.o(.data)
    .data                                    0x20000024   Section      120  drv_led.o(.data)
    allLedStatus                             0x20000024   Data           2  drv_led.o(.data)
    ledOnOffArray                            0x20000028   Data         112  drv_led.o(.data)
    time                                     0x20000098   Data           1  drv_led.o(.data)
    bitPos                                   0x2000009a   Data           2  drv_led.o(.data)
    .data                                    0x2000009c   Section        4  hal_mcu.o(.data)
    sysTickCallFunc                          0x2000009c   Data           4  hal_mcu.o(.data)
    .data                                    0x200000a0   Section        1  hal_timer.o(.data)
    callNum                                  0x200000a0   Data           1  hal_timer.o(.data)
    .data                                    0x200000a4   Section       12  hal_can.o(.data)
    funCanRxMsgIrq                           0x200000a4   Data           4  hal_can.o(.data)
    canIdMaskInit                            0x200000a8   Data           4  hal_can.o(.data)
    canRxDataCallback                        0x200000ac   Data           4  hal_can.o(.data)
    .data                                    0x200000b0   Section        9  stm32f1xx_hal.o(.data)
    .data                                    0x200000bc   Section        4  system_stm32f1xx.o(.data)
    .data                                    0x200000c0   Section        1  stm32f1xx_hal_spi_ex.o(.data)
    .data                                    0x200000c4   Section        9  bms_task.o(.data)
    key1Handle                               0x200000c4   Data           4  bms_task.o(.data)
    bmsTaskHandle                            0x200000c8   Data           4  bms_task.o(.data)
    lastStatus                               0x200000cc   Data           1  bms_task.o(.data)
    .data                                    0x200000d0   Section      121  can_task.o(.data)
    canTaskHandle                            0x200000d0   Data           4  can_task.o(.data)
    flightorHeartBeat                        0x200000d4   Data           4  can_task.o(.data)
    toFlightorDelay                          0x200000d8   Data           4  can_task.o(.data)
    sliceTime                                0x200000dc   Data           4  can_task.o(.data)
    infoToFlightor                           0x200000e0   Data         104  can_task.o(.data)
    sliceCnt                                 0x20000148   Data           1  can_task.o(.data)
    .data                                    0x2000014c   Section        7  flighter_batt_protocol.o(.data)
    packPt                                   0x2000014c   Data           4  flighter_batt_protocol.o(.data)
    protocolActiveFlag                       0x20000150   Data           1  flighter_batt_protocol.o(.data)
    saveSerialNumFlag                        0x20000151   Data           1  flighter_batt_protocol.o(.data)
    step                                     0x20000152   Data           1  flighter_batt_protocol.o(.data)
    .data                                    0x20000154   Section        4  stdout.o(.data)
    .bss                                     0x20000158   Section     5120  os_heap.o(.bss)
    systemHeap                               0x20000158   Data        5120  os_heap.o(.bss)
    .bss                                     0x20001558   Section     4096  drv_ex_flash.o(.bss)
    writeBuff                                0x20001558   Data        4096  drv_ex_flash.o(.bss)
    .bss                                     0x20002558   Section       76  hal_timer.o(.bss)
    htim7                                    0x20002558   Data          64  hal_timer.o(.bss)
    timer7UpdateCallBackArray                0x20002598   Data          12  hal_timer.o(.bss)
    .bss                                     0x200025a4   Section       64  hal_uart.o(.bss)
    uart5Handle                              0x200025a4   Data          64  hal_uart.o(.bss)
    .bss                                     0x200025e4   Section       92  hal_can.o(.bss)
    hCan1Handle                              0x200025e4   Data          68  hal_can.o(.bss)
    canTxCallbackIrq                         0x20002628   Data          12  hal_can.o(.bss)
    canTxParam                               0x20002634   Data          12  hal_can.o(.bss)
    .bss                                     0x20002640   Section       88  hal_spi.o(.bss)
    spi1Handle                               0x20002640   Data          88  hal_spi.o(.bss)
    .bss                                     0x20002698   Section       15  flighter_batt_protocol.o(.bss)
    rxSerialNumStruct                        0x20002698   Data          15  flighter_batt_protocol.o(.bss)
    STACK                                    0x200026a8   Section     3072  startup_stm32f103xe.o(STACK)

    Global Symbols

    Symbol Name                              Value     Ov Type        Size  Object(Section)

    BuildAttributes$$THM_ISAv4$P$D$K$B$S$PE$A:L22UL41UL21$X:L11$S22US41US21$IEEE1$IW$USESV6$~STKCKD$USESV7$~SHL$OSPACE$ROPI$EBA8$MICROLIB$REQ8$PRES8$EABIv2 0x00000000   Number         0  anon$$obj.o ABSOLUTE
    __ARM_use_no_argv                        0x00000000   Number         0  main.o ABSOLUTE
    _printf_a                                0x00000000   Number         0  stubs.o ABSOLUTE
    _printf_c                                0x00000000   Number         0  stubs.o ABSOLUTE
    _printf_charcount                        0x00000000   Number         0  stubs.o ABSOLUTE
    _printf_d                                0x00000000   Number         0  stubs.o ABSOLUTE
    _printf_e                                0x00000000   Number         0  stubs.o ABSOLUTE
    _printf_f                                0x00000000   Number         0  stubs.o ABSOLUTE
    _printf_flags                            0x00000000   Number         0  stubs.o ABSOLUTE
    _printf_fp_dec                           0x00000000   Number         0  stubs.o ABSOLUTE
    _printf_fp_hex                           0x00000000   Number         0  stubs.o ABSOLUTE
    _printf_g                                0x00000000   Number         0  stubs.o ABSOLUTE
    _printf_i                                0x00000000   Number         0  stubs.o ABSOLUTE
    _printf_int_dec                          0x00000000   Number         0  stubs.o ABSOLUTE
    _printf_l                                0x00000000   Number         0  stubs.o ABSOLUTE
    _printf_lc                               0x00000000   Number         0  stubs.o ABSOLUTE
    _printf_ll                               0x00000000   Number         0  stubs.o ABSOLUTE
    _printf_lld                              0x00000000   Number         0  stubs.o ABSOLUTE
    _printf_lli                              0x00000000   Number         0  stubs.o ABSOLUTE
    _printf_llo                              0x00000000   Number         0  stubs.o ABSOLUTE
    _printf_llu                              0x00000000   Number         0  stubs.o ABSOLUTE
    _printf_llx                              0x00000000   Number         0  stubs.o ABSOLUTE
    _printf_longlong_dec                     0x00000000   Number         0  stubs.o ABSOLUTE
    _printf_longlong_hex                     0x00000000   Number         0  stubs.o ABSOLUTE
    _printf_longlong_oct                     0x00000000   Number         0  stubs.o ABSOLUTE
    _printf_ls                               0x00000000   Number         0  stubs.o ABSOLUTE
    _printf_mbtowc                           0x00000000   Number         0  stubs.o ABSOLUTE
    _printf_n                                0x00000000   Number         0  stubs.o ABSOLUTE
    _printf_o                                0x00000000   Number         0  stubs.o ABSOLUTE
    _printf_p                                0x00000000   Number         0  stubs.o ABSOLUTE
    _printf_percent                          0x00000000   Number         0  stubs.o ABSOLUTE
    _printf_pre_padding                      0x00000000   Number         0  stubs.o ABSOLUTE
    _printf_return_value                     0x00000000   Number         0  stubs.o ABSOLUTE
    _printf_s                                0x00000000   Number         0  stubs.o ABSOLUTE
    _printf_sizespec                         0x00000000   Number         0  stubs.o ABSOLUTE
    _printf_str                              0x00000000   Number         0  stubs.o ABSOLUTE
    _printf_truncate_signed                  0x00000000   Number         0  stubs.o ABSOLUTE
    _printf_truncate_unsigned                0x00000000   Number         0  stubs.o ABSOLUTE
    _printf_u                                0x00000000   Number         0  stubs.o ABSOLUTE
    _printf_wc                               0x00000000   Number         0  stubs.o ABSOLUTE
    _printf_wctomb                           0x00000000   Number         0  stubs.o ABSOLUTE
    _printf_widthprec                        0x00000000   Number         0  stubs.o ABSOLUTE
    _printf_x                                0x00000000   Number         0  stubs.o ABSOLUTE
    __cpp_initialize__aeabi_                  - Undefined Weak Reference
    __cxa_finalize                            - Undefined Weak Reference
    _clock_init                               - Undefined Weak Reference
    _microlib_exit                            - Undefined Weak Reference
    __Vectors_Size                           0x00000130   Number         0  startup_stm32f103xe.o ABSOLUTE
    __Vectors                                0x08008000   Data           4  startup_stm32f103xe.o(RESET)
    __Vectors_End                            0x08008130   Data           0  startup_stm32f103xe.o(RESET)
    __main                                   0x08008131   Thumb Code     0  entry.o(.ARM.Collect$$$$00000000)
    _main_stk                                0x08008131   Thumb Code     0  entry2.o(.ARM.Collect$$$$00000001)
    _main_scatterload                        0x08008135   Thumb Code     0  entry5.o(.ARM.Collect$$$$00000004)
    __main_after_scatterload                 0x08008139   Thumb Code     0  entry5.o(.ARM.Collect$$$$00000004)
    _main_clock                              0x08008139   Thumb Code     0  entry7b.o(.ARM.Collect$$$$00000008)
    _main_cpp_init                           0x08008139   Thumb Code     0  entry8b.o(.ARM.Collect$$$$0000000A)
    _main_init                               0x08008139   Thumb Code     0  entry9a.o(.ARM.Collect$$$$0000000B)
    __rt_final_cpp                           0x08008141   Thumb Code     0  entry10a.o(.ARM.Collect$$$$0000000D)
    __rt_final_exit                          0x08008141   Thumb Code     0  entry11a.o(.ARM.Collect$$$$0000000F)
    Reset_Handler                            0x08008145   Thumb Code     8  startup_stm32f103xe.o(.text)
    MemManage_Handler                        0x08008151   Thumb Code     2  startup_stm32f103xe.o(.text)
    BusFault_Handler                         0x08008153   Thumb Code     2  startup_stm32f103xe.o(.text)
    UsageFault_Handler                       0x08008155   Thumb Code     2  startup_stm32f103xe.o(.text)
    DebugMon_Handler                         0x08008159   Thumb Code     2  startup_stm32f103xe.o(.text)
    ADC1_2_IRQHandler                        0x0800815f   Thumb Code     0  startup_stm32f103xe.o(.text)
    ADC3_IRQHandler                          0x0800815f   Thumb Code     0  startup_stm32f103xe.o(.text)
    DMA1_Channel1_IRQHandler                 0x0800815f   Thumb Code     0  startup_stm32f103xe.o(.text)
    DMA1_Channel2_IRQHandler                 0x0800815f   Thumb Code     0  startup_stm32f103xe.o(.text)
    DMA1_Channel3_IRQHandler                 0x0800815f   Thumb Code     0  startup_stm32f103xe.o(.text)
    DMA1_Channel4_IRQHandler                 0x0800815f   Thumb Code     0  startup_stm32f103xe.o(.text)
    DMA1_Channel5_IRQHandler                 0x0800815f   Thumb Code     0  startup_stm32f103xe.o(.text)
    DMA1_Channel6_IRQHandler                 0x0800815f   Thumb Code     0  startup_stm32f103xe.o(.text)
    DMA1_Channel7_IRQHandler                 0x0800815f   Thumb Code     0  startup_stm32f103xe.o(.text)
    DMA2_Channel1_IRQHandler                 0x0800815f   Thumb Code     0  startup_stm32f103xe.o(.text)
    DMA2_Channel2_IRQHandler                 0x0800815f   Thumb Code     0  startup_stm32f103xe.o(.text)
    DMA2_Channel3_IRQHandler                 0x0800815f   Thumb Code     0  startup_stm32f103xe.o(.text)
    DMA2_Channel4_5_IRQHandler               0x0800815f   Thumb Code     0  startup_stm32f103xe.o(.text)
    EXTI0_IRQHandler                         0x0800815f   Thumb Code     0  startup_stm32f103xe.o(.text)
    EXTI15_10_IRQHandler                     0x0800815f   Thumb Code     0  startup_stm32f103xe.o(.text)
    EXTI1_IRQHandler                         0x0800815f   Thumb Code     0  startup_stm32f103xe.o(.text)
    EXTI2_IRQHandler                         0x0800815f   Thumb Code     0  startup_stm32f103xe.o(.text)
    EXTI3_IRQHandler                         0x0800815f   Thumb Code     0  startup_stm32f103xe.o(.text)
    EXTI4_IRQHandler                         0x0800815f   Thumb Code     0  startup_stm32f103xe.o(.text)
    EXTI9_5_IRQHandler                       0x0800815f   Thumb Code     0  startup_stm32f103xe.o(.text)
    FLASH_IRQHandler                         0x0800815f   Thumb Code     0  startup_stm32f103xe.o(.text)
    FSMC_IRQHandler                          0x0800815f   Thumb Code     0  startup_stm32f103xe.o(.text)
    I2C1_ER_IRQHandler                       0x0800815f   Thumb Code     0  startup_stm32f103xe.o(.text)
    I2C1_EV_IRQHandler                       0x0800815f   Thumb Code     0  startup_stm32f103xe.o(.text)
    I2C2_ER_IRQHandler                       0x0800815f   Thumb Code     0  startup_stm32f103xe.o(.text)
    I2C2_EV_IRQHandler                       0x0800815f   Thumb Code     0  startup_stm32f103xe.o(.text)
    PVD_IRQHandler                           0x0800815f   Thumb Code     0  startup_stm32f103xe.o(.text)
    RCC_IRQHandler                           0x0800815f   Thumb Code     0  startup_stm32f103xe.o(.text)
    RTC_Alarm_IRQHandler                     0x0800815f   Thumb Code     0  startup_stm32f103xe.o(.text)
    RTC_IRQHandler                           0x0800815f   Thumb Code     0  startup_stm32f103xe.o(.text)
    SDIO_IRQHandler                          0x0800815f   Thumb Code     0  startup_stm32f103xe.o(.text)
    SPI1_IRQHandler                          0x0800815f   Thumb Code     0  startup_stm32f103xe.o(.text)
    SPI2_IRQHandler                          0x0800815f   Thumb Code     0  startup_stm32f103xe.o(.text)
    SPI3_IRQHandler                          0x0800815f   Thumb Code     0  startup_stm32f103xe.o(.text)
    TAMPER_IRQHandler                        0x0800815f   Thumb Code     0  startup_stm32f103xe.o(.text)
    TIM1_BRK_IRQHandler                      0x0800815f   Thumb Code     0  startup_stm32f103xe.o(.text)
    TIM1_CC_IRQHandler                       0x0800815f   Thumb Code     0  startup_stm32f103xe.o(.text)
    TIM1_TRG_COM_IRQHandler                  0x0800815f   Thumb Code     0  startup_stm32f103xe.o(.text)
    TIM1_UP_IRQHandler                       0x0800815f   Thumb Code     0  startup_stm32f103xe.o(.text)
    TIM2_IRQHandler                          0x0800815f   Thumb Code     0  startup_stm32f103xe.o(.text)
    TIM3_IRQHandler                          0x0800815f   Thumb Code     0  startup_stm32f103xe.o(.text)
    TIM4_IRQHandler                          0x0800815f   Thumb Code     0  startup_stm32f103xe.o(.text)
    TIM5_IRQHandler                          0x0800815f   Thumb Code     0  startup_stm32f103xe.o(.text)
    TIM6_IRQHandler                          0x0800815f   Thumb Code     0  startup_stm32f103xe.o(.text)
    TIM8_BRK_IRQHandler                      0x0800815f   Thumb Code     0  startup_stm32f103xe.o(.text)
    TIM8_CC_IRQHandler                       0x0800815f   Thumb Code     0  startup_stm32f103xe.o(.text)
    TIM8_TRG_COM_IRQHandler                  0x0800815f   Thumb Code     0  startup_stm32f103xe.o(.text)
    TIM8_UP_IRQHandler                       0x0800815f   Thumb Code     0  startup_stm32f103xe.o(.text)
    UART4_IRQHandler                         0x0800815f   Thumb Code     0  startup_stm32f103xe.o(.text)
    UART5_IRQHandler                         0x0800815f   Thumb Code     0  startup_stm32f103xe.o(.text)
    USART1_IRQHandler                        0x0800815f   Thumb Code     0  startup_stm32f103xe.o(.text)
    USART2_IRQHandler                        0x0800815f   Thumb Code     0  startup_stm32f103xe.o(.text)
    USART3_IRQHandler                        0x0800815f   Thumb Code     0  startup_stm32f103xe.o(.text)
    USBWakeUp_IRQHandler                     0x0800815f   Thumb Code     0  startup_stm32f103xe.o(.text)
    WWDG_IRQHandler                          0x0800815f   Thumb Code     0  startup_stm32f103xe.o(.text)
    __aeabi_llsr                             0x08008169   Thumb Code    32  llushr.o(.text)
    _ll_ushift_r                             0x08008169   Thumb Code     0  llushr.o(.text)
    __aeabi_memset                           0x08008189   Thumb Code    14  memseta.o(.text)
    __aeabi_memset4                          0x08008189   Thumb Code     0  memseta.o(.text)
    __aeabi_memset8                          0x08008189   Thumb Code     0  memseta.o(.text)
    __aeabi_memclr                           0x08008197   Thumb Code     4  memseta.o(.text)
    __aeabi_memclr4                          0x08008197   Thumb Code     0  memseta.o(.text)
    __aeabi_memclr8                          0x08008197   Thumb Code     0  memseta.o(.text)
    _memset$wrapper                          0x0800819b   Thumb Code    18  memseta.o(.text)
    __aeabi_uldivmod                         0x080081ad   Thumb Code    98  uldiv.o(.text)
    __scatterload                            0x08008211   Thumb Code    28  init.o(.text)
    __scatterload_rt2                        0x08008211   Thumb Code     0  init.o(.text)
    __aeabi_llsl                             0x08008235   Thumb Code    30  llshl.o(.text)
    _ll_shift_l                              0x08008235   Thumb Code     0  llshl.o(.text)
    __decompress                             0x08008253   Thumb Code     0  __dczerorl2.o(.text)
    __decompress1                            0x08008253   Thumb Code    86  __dczerorl2.o(.text)
    CAN1_RX1_IRQHandler                      0x080082a9   Thumb Code    10  hal_can.o(i.CAN1_RX1_IRQHandler)
    CAN1_SCE_IRQHandler                      0x080082b9   Thumb Code    10  hal_can.o(i.CAN1_SCE_IRQHandler)
    HAL_CAN_ConfigFilter                     0x080084ed   Thumb Code   292  stm32f1xx_hal_can.o(i.HAL_CAN_ConfigFilter)
    HAL_CAN_DeInit                           0x08008611   Thumb Code    40  stm32f1xx_hal_can.o(i.HAL_CAN_DeInit)
    HAL_CAN_ErrorCallback                    0x08008639   Thumb Code     2  stm32f1xx_hal_can.o(i.HAL_CAN_ErrorCallback)
    HAL_CAN_IRQHandler                       0x0800863d   Thumb Code   580  stm32f1xx_hal_can.o(i.HAL_CAN_IRQHandler)
    HAL_CAN_Init                             0x08008891   Thumb Code   366  stm32f1xx_hal_can.o(i.HAL_CAN_Init)
    HAL_CAN_MspDeInit                        0x080089ff   Thumb Code     2  stm32f1xx_hal_can.o(i.HAL_CAN_MspDeInit)
    HAL_CAN_MspInit                          0x08008a01   Thumb Code     2  stm32f1xx_hal_can.o(i.HAL_CAN_MspInit)
    HAL_CAN_RxCpltCallback                   0x08008a03   Thumb Code     2  stm32f1xx_hal_can.o(i.HAL_CAN_RxCpltCallback)
    HAL_CAN_TxCpltCallback                   0x08008a05   Thumb Code     2  stm32f1xx_hal_can.o(i.HAL_CAN_TxCpltCallback)
    HAL_GPIO_Init                            0x08008a09   Thumb Code   790  stm32f1xx_hal_gpio.o(i.HAL_GPIO_Init)
    HAL_GPIO_ReadPin                         0x08008d49   Thumb Code    16  stm32f1xx_hal_gpio.o(i.HAL_GPIO_ReadPin)
    HAL_GPIO_TogglePin                       0x08008d59   Thumb Code     8  stm32f1xx_hal_gpio.o(i.HAL_GPIO_TogglePin)
    HAL_GPIO_WritePin                        0x08008d61   Thumb Code    12  stm32f1xx_hal_gpio.o(i.HAL_GPIO_WritePin)
    HAL_GetTick                              0x08008d6d   Thumb Code     6  stm32f1xx_hal.o(i.HAL_GetTick)
    HAL_IncTick                              0x08008d79   Thumb Code    16  stm32f1xx_hal.o(i.HAL_IncTick)
    HAL_Init                                 0x08008d91   Thumb Code   106  stm32f1xx_hal.o(i.HAL_Init)
    HAL_InitTick                             0x08008e09   Thumb Code    64  stm32f1xx_hal.o(i.HAL_InitTick)
    HAL_MspInit                              0x08008e55   Thumb Code     2  stm32f1xx_hal.o(i.HAL_MspInit)
    HAL_NVIC_EnableIRQ                       0x08008e57   Thumb Code    26  stm32f1xx_hal_cortex.o(i.HAL_NVIC_EnableIRQ)
    HAL_NVIC_SetPriority                     0x08008e71   Thumb Code   124  stm32f1xx_hal_cortex.o(i.HAL_NVIC_SetPriority)
    HAL_NVIC_SetPriorityGrouping             0x08008eed   Thumb Code    32  stm32f1xx_hal_cortex.o(i.HAL_NVIC_SetPriorityGrouping)
    HAL_RCCEx_PeriphCLKConfig                0x08008f15   Thumb Code   290  stm32f1xx_hal_rcc_ex.o(i.HAL_RCCEx_PeriphCLKConfig)
    HAL_RCC_ClockConfig                      0x08009045   Thumb Code   402  stm32f1xx_hal_rcc.o(i.HAL_RCC_ClockConfig)
    HAL_RCC_GetHCLKFreq                      0x080091e9   Thumb Code     6  stm32f1xx_hal_rcc.o(i.HAL_RCC_GetHCLKFreq)
    HAL_RCC_GetPCLK1Freq                     0x080091f5   Thumb Code    22  stm32f1xx_hal_rcc.o(i.HAL_RCC_GetPCLK1Freq)
    HAL_RCC_GetPCLK2Freq                     0x08009215   Thumb Code    22  stm32f1xx_hal_rcc.o(i.HAL_RCC_GetPCLK2Freq)
    HAL_RCC_GetSysClockFreq                  0x08009235   Thumb Code   116  stm32f1xx_hal_rcc.o(i.HAL_RCC_GetSysClockFreq)
    HAL_RCC_OscConfig                        0x080092c9   Thumb Code  1078  stm32f1xx_hal_rcc.o(i.HAL_RCC_OscConfig)
    HAL_SPI_Init                             0x08009709   Thumb Code   144  stm32f1xx_hal_spi_ex.o(i.HAL_SPI_Init)
    HAL_SPI_MspInit                          0x0800979d   Thumb Code     2  stm32f1xx_hal_spi.o(i.HAL_SPI_MspInit)
    HAL_SYSTICK_CLKSourceConfig              0x0800979f   Thumb Code    40  stm32f1xx_hal_cortex.o(i.HAL_SYSTICK_CLKSourceConfig)
    HAL_SYSTICK_Config                       0x080097c7   Thumb Code    52  stm32f1xx_hal_cortex.o(i.HAL_SYSTICK_Config)
    HAL_TIM_Base_Init                        0x080097fb   Thumb Code    52  stm32f1xx_hal_tim.o(i.HAL_TIM_Base_Init)
    HAL_TIM_Base_MspInit                     0x0800982f   Thumb Code     2  stm32f1xx_hal_tim.o(i.HAL_TIM_Base_MspInit)
    HAL_UART_DeInit                          0x08009831   Thumb Code    46  stm32f1xx_hal_uart.o(i.HAL_UART_DeInit)
    HAL_UART_Init                            0x0800985f   Thumb Code   114  stm32f1xx_hal_uart.o(i.HAL_UART_Init)
    HAL_UART_MspDeInit                       0x080098d1   Thumb Code     2  stm32f1xx_hal_uart.o(i.HAL_UART_MspDeInit)
    HAL_UART_MspInit                         0x080098d3   Thumb Code     2  stm32f1xx_hal_uart.o(i.HAL_UART_MspInit)
    HardFault_Handler                        0x080098d5   Thumb Code     4  hal_mcu.o(i.HardFault_Handler)
    NMI_Handler                              0x080098d9   Thumb Code     2  hal_mcu.o(i.NMI_Handler)
    PendSV_Handler                           0x08009915   Thumb Code     2  hal_mcu.o(i.PendSV_Handler)
    SVC_Handler                              0x08009941   Thumb Code     2  hal_mcu.o(i.SVC_Handler)
    SysTick_Handler                          0x08009945   Thumb Code    20  hal_mcu.o(i.SysTick_Handler)
    SystemInit                               0x0800995d   Thumb Code    70  system_stm32f1xx.o(i.SystemInit)
    TIM7_IRQHandler                          0x080099b5   Thumb Code    56  hal_timer.o(i.TIM7_IRQHandler)
    TIM_Base_SetConfig                       0x080099f5   Thumb Code   132  stm32f1xx_hal_tim.o(i.TIM_Base_SetConfig)
    USB_HP_CAN1_TX_IRQHandler                0x08009c55   Thumb Code    10  hal_can.o(i.USB_HP_CAN1_TX_IRQHandler)
    USB_LP_CAN1_RX0_IRQHandler               0x08009c65   Thumb Code    56  hal_can.o(i.USB_LP_CAN1_RX0_IRQHandler)
    __0printf$5                              0x08009ca5   Thumb Code    22  printf5.o(i.__0printf$5)
    __1printf$5                              0x08009ca5   Thumb Code     0  printf5.o(i.__0printf$5)
    __2printf                                0x08009ca5   Thumb Code     0  printf5.o(i.__0printf$5)
    __scatterload_copy                       0x08009cc5   Thumb Code    14  handlers.o(i.__scatterload_copy)
    __scatterload_null                       0x08009cd3   Thumb Code     2  handlers.o(i.__scatterload_null)
    __scatterload_zeroinit                   0x08009cd5   Thumb Code    14  handlers.o(i.__scatterload_zeroinit)
    bms_task_create                          0x0800a021   Thumb Code    84  bms_task.o(i.bms_task_create)
    can_task_create                          0x0800a129   Thumb Code    92  can_task.o(i.can_task_create)
    co_pack_create                           0x0800a269   Thumb Code   104  co_packet.o(i.co_pack_create)
    co_pack_flush                            0x0800a2d1   Thumb Code    20  co_packet.o(i.co_pack_flush)
    co_pack_get_frame_point                  0x0800a2e5   Thumb Code    14  co_packet.o(i.co_pack_get_frame_point)
    co_pack_get_one_frame                    0x0800a2f3   Thumb Code   206  co_packet.o(i.co_pack_get_one_frame)
    co_pack_set_dat                          0x0800a3c1   Thumb Code    24  co_packet.o(i.co_pack_set_dat)
    crc_ccitt_16_xmodem                      0x0800a3d9   Thumb Code    44  co_crc.o(i.crc_ccitt_16_xmodem)
    drv_can_power_off                        0x0800a429   Thumb Code    12  drv_can.o(i.drv_can_power_off)
    drv_can_power_on                         0x0800a435   Thumb Code    12  drv_can.o(i.drv_can_power_on)
    drv_can_start                            0x0800a45d   Thumb Code    30  drv_can.o(i.drv_can_start)
    drv_can_write                            0x0800a47b   Thumb Code    36  drv_can.o(i.drv_can_write)
    drv_ex_flash_erase_sector                0x0800a49f   Thumb Code   100  drv_ex_flash.o(i.drv_ex_flash_erase_sector)
    drv_ex_flash_read_buff                   0x0800a503   Thumb Code   108  drv_ex_flash.o(i.drv_ex_flash_read_buff)
    drv_ex_flash_read_dev_id                 0x0800a56f   Thumb Code    88  drv_ex_flash.o(i.drv_ex_flash_read_dev_id)
    drv_ex_flash_start                       0x0800a5c9   Thumb Code    82  drv_ex_flash.o(i.drv_ex_flash_start)
    drv_ex_flash_wp_disable                  0x0800a691   Thumb Code    12  drv_ex_flash.o(i.drv_ex_flash_wp_disable)
    drv_ex_flash_write_buff                  0x0800a69d   Thumb Code   200  drv_ex_flash.o(i.drv_ex_flash_write_buff)
    drv_key1_get_status                      0x0800a769   Thumb Code    18  drv_key.o(i.drv_key1_get_status)
    drv_key_scan_callback_register           0x0800a7a5   Thumb Code    42  drv_key.o(i.drv_key_scan_callback_register)
    drv_key_start                            0x0800a7d9   Thumb Code    42  drv_key.o(i.drv_key_start)
    drv_led3_off                             0x0800a80d   Thumb Code    14  drv_led.o(i.drv_led3_off)
    drv_led3_on                              0x0800a821   Thumb Code    16  drv_led.o(i.drv_led3_on)
    drv_led4_off                             0x0800a835   Thumb Code    14  drv_led.o(i.drv_led4_off)
    drv_led4_on                              0x0800a849   Thumb Code    16  drv_led.o(i.drv_led4_on)
    drv_led5_off                             0x0800a85d   Thumb Code    14  drv_led.o(i.drv_led5_off)
    drv_led5_on                              0x0800a871   Thumb Code    16  drv_led.o(i.drv_led5_on)
    drv_led6_off                             0x0800a885   Thumb Code    14  drv_led.o(i.drv_led6_off)
    drv_led6_on                              0x0800a899   Thumb Code    16  drv_led.o(i.drv_led6_on)
    drv_led_start                            0x0800a8ad   Thumb Code    26  drv_led.o(i.drv_led_start)
    drv_print_start                          0x0800a8d1   Thumb Code    18  drv_print.o(i.drv_print_start)
    f_b_active_flag_clear                    0x0800aa65   Thumb Code     8  flighter_batt_protocol.o(i.f_b_active_flag_clear)
    f_b_active_flag_get                      0x0800aa71   Thumb Code     6  flighter_batt_protocol.o(i.f_b_active_flag_get)
    f_b_frame_get_one_data                   0x0800ab4d   Thumb Code    26  flighter_batt_protocol.o(i.f_b_frame_get_one_data)
    f_b_get_one_frame                        0x0800ab99   Thumb Code    16  flighter_batt_protocol.o(i.f_b_get_one_frame)
    f_b_protocol_create                      0x0800abad   Thumb Code    36  flighter_batt_protocol.o(i.f_b_protocol_create)
    f_b_protocol_process                     0x0800abd9   Thumb Code   114  flighter_batt_protocol.o(i.f_b_protocol_process)
    f_b_rx_serialnum_get                     0x0800ae81   Thumb Code     4  flighter_batt_protocol.o(i.f_b_rx_serialnum_get)
    f_b_save_serialnum_flag_clear            0x0800ae89   Thumb Code     8  flighter_batt_protocol.o(i.f_b_save_serialnum_flag_clear)
    f_b_save_serialnum_flag_get              0x0800ae95   Thumb Code     6  flighter_batt_protocol.o(i.f_b_save_serialnum_flag_get)
    fputc                                    0x0800aead   Thumb Code    16  drv_print.o(i.fputc)
    hal_can_32bit_id_mask                    0x0800aebd   Thumb Code    90  hal_can.o(i.hal_can_32bit_id_mask)
    hal_can_init                             0x0800af55   Thumb Code   218  hal_can.o(i.hal_can_init)
    hal_can_set_id_mask                      0x0800b341   Thumb Code     6  hal_can.o(i.hal_can_set_id_mask)
    hal_can_set_rx_callback                  0x0800b34d   Thumb Code     6  hal_can.o(i.hal_can_set_rx_callback)
    hal_can_write_msg                        0x0800b359   Thumb Code   162  hal_can.o(i.hal_can_write_msg)
    hal_clk_init                             0x0800b409   Thumb Code   130  hal_clk.o(i.hal_clk_init)
    hal_get_sys_freq                         0x0800b48b   Thumb Code    12  hal_mcu.o(i.hal_get_sys_freq)
    hal_get_tick                             0x0800b497   Thumb Code     8  hal_mcu.o(i.hal_get_tick)
    hal_gpio_ctrl                            0x0800b4a1   Thumb Code    84  hal_gpio.o(i.hal_gpio_ctrl)
    hal_gpio_init                            0x0800b4f9   Thumb Code   194  hal_gpio.o(i.hal_gpio_init)
    hal_gpio_read                            0x0800b5c5   Thumb Code    40  hal_gpio.o(i.hal_gpio_read)
    hal_gpio_write                           0x0800b5f1   Thumb Code   104  hal_gpio.o(i.hal_gpio_write)
    hal_mcu_common_init                      0x0800b65d   Thumb Code    24  hal_mcu.o(i.hal_mcu_common_init)
    hal_spi1_init                            0x0800b675   Thumb Code   100  hal_spi.o(i.hal_spi1_init)
    hal_spi1_read_byte                       0x0800b6e5   Thumb Code    80  hal_spi.o(i.hal_spi1_read_byte)
    hal_spi1_write_byte                      0x0800b73d   Thumb Code    78  hal_spi.o(i.hal_spi1_write_byte)
    hal_systick_update_callback_register     0x0800b795   Thumb Code     6  hal_mcu.o(i.hal_systick_update_callback_register)
    hal_timer7_init                          0x0800b7a1   Thumb Code   142  hal_timer.o(i.hal_timer7_init)
    hal_timer7_update_callback_register      0x0800b845   Thumb Code    42  hal_timer.o(i.hal_timer7_update_callback_register)
    hal_uart5_init                           0x0800b879   Thumb Code   134  hal_uart.o(i.hal_uart5_init)
    hal_uart5_putchar                        0x0800b90d   Thumb Code    28  hal_uart.o(i.hal_uart5_putchar)
    key_detect_polling                       0x0800bb89   Thumb Code   130  co_key.o(i.key_detect_polling)
    key_object_create                        0x0800bc0b   Thumb Code    52  co_key.o(i.key_object_create)
    key_object_read                          0x0800bc3f   Thumb Code     6  co_key.o(i.key_object_read)
    main                                     0x0800bcb9   Thumb Code   182  main.o(i.main)
    os_fifo_check_offset_dat                 0x0800bdfd   Thumb Code    58  os_fifo.o(i.os_fifo_check_offset_dat)
    os_fifo_create                           0x0800be37   Thumb Code    52  os_fifo.o(i.os_fifo_create)
    os_fifo_flush                            0x0800be6b   Thumb Code     6  os_fifo.o(i.os_fifo_flush)
    os_fifo_flush_buf                        0x0800be71   Thumb Code    50  os_fifo.o(i.os_fifo_flush_buf)
    os_fifo_get_count                        0x0800bea3   Thumb Code    40  os_fifo.o(i.os_fifo_get_count)
    os_fifo_init                             0x0800becb   Thumb Code    26  os_fifo.o(i.os_fifo_init)
    os_fifo_push_dat                         0x0800bee5   Thumb Code    48  os_fifo.o(i.os_fifo_push_dat)
    os_free                                  0x0800bf15   Thumb Code     2  os_heap.o(i.os_free)
    os_heap_init                             0x0800bf45   Thumb Code    12  os_heap.o(i.os_heap_init)
    os_malloc                                0x0800bf7d   Thumb Code    68  os_heap.o(i.os_malloc)
    os_task_create                           0x0800bfcd   Thumb Code    72  os_task.o(i.os_task_create)
    os_task_main                             0x0800c049   Thumb Code    64  os_task.o(i.os_task_main)
    os_task_tick_remap                       0x0800c091   Thumb Code     6  os_task.o(i.os_task_tick_remap)
    os_timer_create                          0x0800c09d   Thumb Code    98  os_timer.o(i.os_timer_create)
    os_timer_ctrl                            0x0800c105   Thumb Code    48  os_timer.o(i.os_timer_ctrl)
    os_timer_run                             0x0800c139   Thumb Code    58  os_timer.o(i.os_timer_run)
    user_can_rx_matrix_handle_register       0x0800c2d9   Thumb Code     6  drv_can.o(i.user_can_rx_matrix_handle_register)
    ccitt16Table                             0x0800c2e4   Data         512  co_crc.o(.constdata)
    AHBPrescTable                            0x0800c8b8   Data          16  system_stm32f1xx.o(.constdata)
    APBPrescTable                            0x0800c8c8   Data           8  system_stm32f1xx.o(.constdata)
    Region$$Table$$Base                      0x0800c8d8   Number         0  anon$$obj.o(Region$$Table)
    Region$$Table$$Limit                     0x0800c8f8   Number         0  anon$$obj.o(Region$$Table)
    uwTick                                   0x200000b0   Data           4  stm32f1xx_hal.o(.data)
    uwTickPrio                               0x200000b4   Data           4  stm32f1xx_hal.o(.data)
    uwTickFreq                               0x200000b8   Data           1  stm32f1xx_hal.o(.data)
    SystemCoreClock                          0x200000bc   Data           4  system_stm32f1xx.o(.data)
    uCRCErrorWorkaroundCheck                 0x200000c0   Data           1  stm32f1xx_hal_spi_ex.o(.data)
    __stdout                                 0x20000154   Data           4  stdout.o(.data)
    __initial_sp                             0x200032a8   Data           0  startup_stm32f103xe.o(STACK)



==============================================================================

Memory Map of the image

  Image Entry point : 0x08008131

  Load Region LR_IROM1 (Base: 0x08008000, Size: 0x00004a50, Max: 0x00018000, ABSOLUTE, COMPRESSED[0x00004968])

    Execution Region ER_IROM1 (Base: 0x08008000, Size: 0x000048f8, Max: 0x00018000, ABSOLUTE)

    Base Addr    Size         Type   Attr      Idx    E Section Name        Object

    0x08008000   0x00000130   Data   RO         4920    RESET               startup_stm32f103xe.o
    0x08008130   0x00000000   Code   RO         5735  * .ARM.Collect$$$$00000000  mc_w.l(entry.o)
    0x08008130   0x00000004   Code   RO         6003    .ARM.Collect$$$$00000001  mc_w.l(entry2.o)
    0x08008134   0x00000004   Code   RO         6006    .ARM.Collect$$$$00000004  mc_w.l(entry5.o)
    0x08008138   0x00000000   Code   RO         6008    .ARM.Collect$$$$00000008  mc_w.l(entry7b.o)
    0x08008138   0x00000000   Code   RO         6010    .ARM.Collect$$$$0000000A  mc_w.l(entry8b.o)
    0x08008138   0x00000008   Code   RO         6011    .ARM.Collect$$$$0000000B  mc_w.l(entry9a.o)
    0x08008140   0x00000000   Code   RO         6013    .ARM.Collect$$$$0000000D  mc_w.l(entry10a.o)
    0x08008140   0x00000000   Code   RO         6015    .ARM.Collect$$$$0000000F  mc_w.l(entry11a.o)
    0x08008140   0x00000004   Code   RO         6004    .ARM.Collect$$$$00002712  mc_w.l(entry2.o)
    0x08008144   0x00000024   Code   RO         4921    .text               startup_stm32f103xe.o
    0x08008168   0x00000020   Code   RO         5738    .text               mc_w.l(llushr.o)
    0x08008188   0x00000024   Code   RO         5740    .text               mc_w.l(memseta.o)
    0x080081ac   0x00000062   Code   RO         6020    .text               mc_w.l(uldiv.o)
    0x0800820e   0x00000002   PAD
    0x08008210   0x00000024   Code   RO         6033    .text               mc_w.l(init.o)
    0x08008234   0x0000001e   Code   RO         6035    .text               mc_w.l(llshl.o)
    0x08008252   0x00000056   Code   RO         6049    .text               mc_w.l(__dczerorl2.o)
    0x080082a8   0x00000010   Code   RO         1672    i.CAN1_RX1_IRQHandler  hal_can.o
    0x080082b8   0x00000010   Code   RO         1673    i.CAN1_SCE_IRQHandler  hal_can.o
    0x080082c8   0x000001c2   Code   RO         2457    i.CAN_Receive_IT    stm32f1xx_hal_can.o
    0x0800848a   0x00000062   Code   RO         2458    i.CAN_Transmit_IT   stm32f1xx_hal_can.o
    0x080084ec   0x00000124   Code   RO         2459    i.HAL_CAN_ConfigFilter  stm32f1xx_hal_can.o
    0x08008610   0x00000028   Code   RO         2460    i.HAL_CAN_DeInit    stm32f1xx_hal_can.o
    0x08008638   0x00000002   Code   RO         2461    i.HAL_CAN_ErrorCallback  stm32f1xx_hal_can.o
    0x0800863a   0x00000002   PAD
    0x0800863c   0x00000254   Code   RO         2464    i.HAL_CAN_IRQHandler  stm32f1xx_hal_can.o
    0x08008890   0x0000016e   Code   RO         2465    i.HAL_CAN_Init      stm32f1xx_hal_can.o
    0x080089fe   0x00000002   Code   RO         2466    i.HAL_CAN_MspDeInit  stm32f1xx_hal_can.o
    0x08008a00   0x00000002   Code   RO         2467    i.HAL_CAN_MspInit   stm32f1xx_hal_can.o
    0x08008a02   0x00000002   Code   RO         2470    i.HAL_CAN_RxCpltCallback  stm32f1xx_hal_can.o
    0x08008a04   0x00000002   Code   RO         2474    i.HAL_CAN_TxCpltCallback  stm32f1xx_hal_can.o
    0x08008a06   0x00000002   PAD
    0x08008a08   0x00000340   Code   RO         2807    i.HAL_GPIO_Init     stm32f1xx_hal_gpio.o
    0x08008d48   0x00000010   Code   RO         2809    i.HAL_GPIO_ReadPin  stm32f1xx_hal_gpio.o
    0x08008d58   0x00000008   Code   RO         2810    i.HAL_GPIO_TogglePin  stm32f1xx_hal_gpio.o
    0x08008d60   0x0000000c   Code   RO         2811    i.HAL_GPIO_WritePin  stm32f1xx_hal_gpio.o
    0x08008d6c   0x0000000c   Code   RO         1958    i.HAL_GetTick       stm32f1xx_hal.o
    0x08008d78   0x00000018   Code   RO         1962    i.HAL_IncTick       stm32f1xx_hal.o
    0x08008d90   0x00000078   Code   RO         1963    i.HAL_Init          stm32f1xx_hal.o
    0x08008e08   0x0000004c   Code   RO         1964    i.HAL_InitTick      stm32f1xx_hal.o
    0x08008e54   0x00000002   Code   RO         1966    i.HAL_MspInit       stm32f1xx_hal.o
    0x08008e56   0x0000001a   Code   RO         2589    i.HAL_NVIC_EnableIRQ  stm32f1xx_hal_cortex.o
    0x08008e70   0x0000007c   Code   RO         2595    i.HAL_NVIC_SetPriority  stm32f1xx_hal_cortex.o
    0x08008eec   0x00000028   Code   RO         2596    i.HAL_NVIC_SetPriorityGrouping  stm32f1xx_hal_cortex.o
    0x08008f14   0x00000130   Code   RO         3170    i.HAL_RCCEx_PeriphCLKConfig  stm32f1xx_hal_rcc_ex.o
    0x08009044   0x000001a4   Code   RO         3062    i.HAL_RCC_ClockConfig  stm32f1xx_hal_rcc.o
    0x080091e8   0x0000000c   Code   RO         3067    i.HAL_RCC_GetHCLKFreq  stm32f1xx_hal_rcc.o
    0x080091f4   0x00000020   Code   RO         3069    i.HAL_RCC_GetPCLK1Freq  stm32f1xx_hal_rcc.o
    0x08009214   0x00000020   Code   RO         3070    i.HAL_RCC_GetPCLK2Freq  stm32f1xx_hal_rcc.o
    0x08009234   0x00000094   Code   RO         3071    i.HAL_RCC_GetSysClockFreq  stm32f1xx_hal_rcc.o
    0x080092c8   0x00000440   Code   RO         3074    i.HAL_RCC_OscConfig  stm32f1xx_hal_rcc.o
    0x08009708   0x00000094   Code   RO         5271    i.HAL_SPI_Init      stm32f1xx_hal_spi_ex.o
    0x0800979c   0x00000002   Code   RO         4941    i.HAL_SPI_MspInit   stm32f1xx_hal_spi.o
    0x0800979e   0x00000028   Code   RO         2598    i.HAL_SYSTICK_CLKSourceConfig  stm32f1xx_hal_cortex.o
    0x080097c6   0x00000034   Code   RO         2600    i.HAL_SYSTICK_Config  stm32f1xx_hal_cortex.o
    0x080097fa   0x00000034   Code   RO         3206    i.HAL_TIM_Base_Init  stm32f1xx_hal_tim.o
    0x0800982e   0x00000002   Code   RO         3208    i.HAL_TIM_Base_MspInit  stm32f1xx_hal_tim.o
    0x08009830   0x0000002e   Code   RO         4098    i.HAL_UART_DeInit   stm32f1xx_hal_uart.o
    0x0800985e   0x00000072   Code   RO         4103    i.HAL_UART_Init     stm32f1xx_hal_uart.o
    0x080098d0   0x00000002   Code   RO         4104    i.HAL_UART_MspDeInit  stm32f1xx_hal_uart.o
    0x080098d2   0x00000002   Code   RO         4105    i.HAL_UART_MspInit  stm32f1xx_hal_uart.o
    0x080098d4   0x00000004   Code   RO         1286    i.HardFault_Handler  hal_mcu.o
    0x080098d8   0x00000002   Code   RO         1287    i.NMI_Handler       hal_mcu.o
    0x080098da   0x00000002   PAD
    0x080098dc   0x00000010   Code   RO         2602    i.NVIC_GetPriorityGrouping  stm32f1xx_hal_cortex.o
    0x080098ec   0x00000028   Code   RO         2603    i.NVIC_SetPriority  stm32f1xx_hal_cortex.o
    0x08009914   0x00000002   Code   RO         1288    i.PendSV_Handler    hal_mcu.o
    0x08009916   0x00000002   PAD
    0x08009918   0x00000028   Code   RO         3075    i.RCC_Delay         stm32f1xx_hal_rcc.o
    0x08009940   0x00000002   Code   RO         1289    i.SVC_Handler       hal_mcu.o
    0x08009942   0x00000002   PAD
    0x08009944   0x00000018   Code   RO         1290    i.SysTick_Handler   hal_mcu.o
    0x0800995c   0x00000058   Code   RO         4885    i.SystemInit        system_stm32f1xx.o
    0x080099b4   0x00000040   Code   RO         1601    i.TIM7_IRQHandler   hal_timer.o
    0x080099f4   0x00000098   Code   RO         3290    i.TIM_Base_SetConfig  stm32f1xx_hal_tim.o
    0x08009a8c   0x000001c8   Code   RO         4130    i.UART_SetConfig    stm32f1xx_hal_uart.o
    0x08009c54   0x00000010   Code   RO         1674    i.USB_HP_CAN1_TX_IRQHandler  hal_can.o
    0x08009c64   0x00000040   Code   RO         1675    i.USB_LP_CAN1_RX0_IRQHandler  hal_can.o
    0x08009ca4   0x00000020   Code   RO         5875    i.__0printf$5       mc_w.l(printf5.o)
    0x08009cc4   0x0000000e   Code   RO         6043    i.__scatterload_copy  mc_w.l(handlers.o)
    0x08009cd2   0x00000002   Code   RO         6044    i.__scatterload_null  mc_w.l(handlers.o)
    0x08009cd4   0x0000000e   Code   RO         6045    i.__scatterload_zeroinit  mc_w.l(handlers.o)
    0x08009ce2   0x00000002   PAD
    0x08009ce4   0x000002c0   Code   RO         5882    i._printf_core      mc_w.l(printf5.o)
    0x08009fa4   0x0000007c   Code   RO         5517    i.battery_to_flight_ack  can_task.o
    0x0800a020   0x00000090   Code   RO         5421    i.bms_task_create   bms_task.o
    0x0800a0b0   0x00000058   Code   RO         5422    i.bms_task_main     bms_task.o
    0x0800a108   0x00000010   Code   RO         1676    i.can_get_one_mailbox  hal_can.o
    0x0800a118   0x00000010   Code   RO          585    i.can_matrix_rx_id_mask_init  drv_can.o
    0x0800a128   0x000000b8   Code   RO         5518    i.can_task_create   can_task.o
    0x0800a1e0   0x00000010   Code   RO         5519    i.can_task_main     can_task.o
    0x0800a1f0   0x00000038   Code   RO         5520    i.can_task_matrix_process  can_task.o
    0x0800a228   0x00000040   Code   RO         5521    i.can_task_timer_callback  can_task.o
    0x0800a268   0x00000068   Code   RO          468    i.co_pack_create    co_packet.o
    0x0800a2d0   0x00000014   Code   RO          469    i.co_pack_flush     co_packet.o
    0x0800a2e4   0x0000000e   Code   RO          471    i.co_pack_get_frame_point  co_packet.o
    0x0800a2f2   0x000000ce   Code   RO          472    i.co_pack_get_one_frame  co_packet.o
    0x0800a3c0   0x00000018   Code   RO          474    i.co_pack_set_dat   co_packet.o
    0x0800a3d8   0x00000030   Code   RO          543    i.crc_ccitt_16_xmodem  co_crc.o
    0x0800a408   0x00000010   Code   RO          586    i.drv_can_matrix_init  drv_can.o
    0x0800a418   0x00000010   Code   RO          587    i.drv_can_matrix_rx_register  drv_can.o
    0x0800a428   0x0000000c   Code   RO          588    i.drv_can_power_off  drv_can.o
    0x0800a434   0x0000000c   Code   RO          589    i.drv_can_power_on  drv_can.o
    0x0800a440   0x0000001c   Code   RO          590    i.drv_can_rx_data_process  drv_can.o
    0x0800a45c   0x0000001e   Code   RO          591    i.drv_can_start     drv_can.o
    0x0800a47a   0x00000024   Code   RO          592    i.drv_can_write     drv_can.o
    0x0800a49e   0x00000064   Code   RO          976    i.drv_ex_flash_erase_sector  drv_ex_flash.o
    0x0800a502   0x0000006c   Code   RO          978    i.drv_ex_flash_read_buff  drv_ex_flash.o
    0x0800a56e   0x00000058   Code   RO          979    i.drv_ex_flash_read_dev_id  drv_ex_flash.o
    0x0800a5c6   0x00000002   PAD
    0x0800a5c8   0x000000c8   Code   RO          981    i.drv_ex_flash_start  drv_ex_flash.o
    0x0800a690   0x0000000c   Code   RO          983    i.drv_ex_flash_wp_disable  drv_ex_flash.o
    0x0800a69c   0x000000cc   Code   RO          985    i.drv_ex_flash_write_buff  drv_ex_flash.o
    0x0800a768   0x00000012   Code   RO          743    i.drv_key1_get_status  drv_key.o
    0x0800a77a   0x00000002   PAD
    0x0800a77c   0x00000028   Code   RO          744    i.drv_key_polling   drv_key.o
    0x0800a7a4   0x00000034   Code   RO          745    i.drv_key_scan_callback_register  drv_key.o
    0x0800a7d8   0x00000034   Code   RO          746    i.drv_key_start     drv_key.o
    0x0800a80c   0x00000014   Code   RO         1096    i.drv_led3_off      drv_led.o
    0x0800a820   0x00000014   Code   RO         1097    i.drv_led3_on       drv_led.o
    0x0800a834   0x00000014   Code   RO         1098    i.drv_led4_off      drv_led.o
    0x0800a848   0x00000014   Code   RO         1099    i.drv_led4_on       drv_led.o
    0x0800a85c   0x00000014   Code   RO         1100    i.drv_led5_off      drv_led.o
    0x0800a870   0x00000014   Code   RO         1101    i.drv_led5_on       drv_led.o
    0x0800a884   0x00000014   Code   RO         1102    i.drv_led6_off      drv_led.o
    0x0800a898   0x00000014   Code   RO         1103    i.drv_led6_on       drv_led.o
    0x0800a8ac   0x00000024   Code   RO         1106    i.drv_led_start     drv_led.o
    0x0800a8d0   0x00000012   Code   RO          714    i.drv_print_start   drv_print.o
    0x0800a8e2   0x0000001a   Code   RO          986    i.ex_flash_cmd_write_disable  drv_ex_flash.o
    0x0800a8fc   0x0000001a   Code   RO          987    i.ex_flash_cmd_write_enable  drv_ex_flash.o
    0x0800a916   0x0000000c   Code   RO          988    i.ex_flash_disable  drv_ex_flash.o
    0x0800a922   0x0000000c   Code   RO          989    i.ex_flash_enable   drv_ex_flash.o
    0x0800a92e   0x00000034   Code   RO          990    i.ex_flash_read_sr_low8  drv_ex_flash.o
    0x0800a962   0x00000030   Code   RO          991    i.ex_flash_wait_busy  drv_ex_flash.o
    0x0800a992   0x0000004e   Code   RO          992    i.ex_flash_write_nocheck  drv_ex_flash.o
    0x0800a9e0   0x00000082   Code   RO          993    i.ex_flash_write_page  drv_ex_flash.o
    0x0800aa62   0x00000002   PAD
    0x0800aa64   0x0000000c   Code   RO         5568    i.f_b_active_flag_clear  flighter_batt_protocol.o
    0x0800aa70   0x0000000c   Code   RO         5569    i.f_b_active_flag_get  flighter_batt_protocol.o
    0x0800aa7c   0x0000000c   Code   RO         5570    i.f_b_active_flag_set  flighter_batt_protocol.o
    0x0800aa88   0x000000c4   Code   RO         5571    i.f_b_frame_analyse_char  flighter_batt_protocol.o
    0x0800ab4c   0x00000020   Code   RO         5572    i.f_b_frame_get_one_data  flighter_batt_protocol.o
    0x0800ab6c   0x00000024   Code   RO         5573    i.f_b_frame_receiver_create  flighter_batt_protocol.o
    0x0800ab90   0x00000006   Code   RO         5574    i.f_b_frame_timeout_check  flighter_batt_protocol.o
    0x0800ab96   0x00000002   PAD
    0x0800ab98   0x00000014   Code   RO         5575    i.f_b_get_one_frame  flighter_batt_protocol.o
    0x0800abac   0x0000002c   Code   RO         5576    i.f_b_protocol_create  flighter_batt_protocol.o
    0x0800abd8   0x000000a8   Code   RO         5577    i.f_b_protocol_process  flighter_batt_protocol.o
    0x0800ac80   0x000000bc   Code   RO         5578    i.f_b_recv_active_action  flighter_batt_protocol.o
    0x0800ad3c   0x00000144   Code   RO         5579    i.f_b_recv_serial_config_action  flighter_batt_protocol.o
    0x0800ae80   0x00000008   Code   RO         5580    i.f_b_rx_serialnum_get  flighter_batt_protocol.o
    0x0800ae88   0x0000000c   Code   RO         5581    i.f_b_save_serialnum_flag_clear  flighter_batt_protocol.o
    0x0800ae94   0x0000000c   Code   RO         5582    i.f_b_save_serialnum_flag_get  flighter_batt_protocol.o
    0x0800aea0   0x0000000c   Code   RO         5583    i.f_b_save_serialnum_flag_set  flighter_batt_protocol.o
    0x0800aeac   0x00000010   Code   RO          715    i.fputc             drv_print.o
    0x0800aebc   0x00000060   Code   RO         1678    i.hal_can_32bit_id_mask  hal_can.o
    0x0800af1c   0x00000036   Code   RO         1680    i.hal_can_get_empty_mailbox  hal_can.o
    0x0800af52   0x00000002   PAD
    0x0800af54   0x000000f0   Code   RO         1681    i.hal_can_init      hal_can.o
    0x0800b044   0x00000104   Code   RO         1682    i.hal_can_read      hal_can.o
    0x0800b148   0x00000040   Code   RO         1683    i.hal_can_read_msg  hal_can.o
    0x0800b188   0x0000000c   Code   RO         1684    i.hal_can_rx_irq_callback_register  hal_can.o
    0x0800b194   0x000000f2   Code   RO         1685    i.hal_can_send      hal_can.o
    0x0800b286   0x00000002   PAD
    0x0800b288   0x0000005c   Code   RO         1686    i.hal_can_send_msg  hal_can.o
    0x0800b2e4   0x0000005c   Code   RO         1687    i.hal_can_set_baud  hal_can.o
    0x0800b340   0x0000000c   Code   RO         1688    i.hal_can_set_id_mask  hal_can.o
    0x0800b34c   0x0000000c   Code   RO         1689    i.hal_can_set_rx_callback  hal_can.o
    0x0800b358   0x000000b0   Code   RO         1690    i.hal_can_write_msg  hal_can.o
    0x0800b408   0x00000082   Code   RO         1501    i.hal_clk_init      hal_clk.o
    0x0800b48a   0x0000000c   Code   RO         1291    i.hal_get_sys_freq  hal_mcu.o
    0x0800b496   0x00000008   Code   RO         1292    i.hal_get_tick      hal_mcu.o
    0x0800b49e   0x00000002   PAD
    0x0800b4a0   0x00000058   Code   RO         1525    i.hal_gpio_ctrl     hal_gpio.o
    0x0800b4f8   0x000000cc   Code   RO         1526    i.hal_gpio_init     hal_gpio.o
    0x0800b5c4   0x0000002c   Code   RO         1527    i.hal_gpio_read     hal_gpio.o
    0x0800b5f0   0x0000006c   Code   RO         1528    i.hal_gpio_write    hal_gpio.o
    0x0800b65c   0x00000018   Code   RO         1293    i.hal_mcu_common_init  hal_mcu.o
    0x0800b674   0x00000070   Code   RO         1909    i.hal_spi1_init     hal_spi.o
    0x0800b6e4   0x00000058   Code   RO         1910    i.hal_spi1_read_byte  hal_spi.o
    0x0800b73c   0x00000058   Code   RO         1911    i.hal_spi1_write_byte  hal_spi.o
    0x0800b794   0x0000000c   Code   RO         1294    i.hal_systick_update_callback_register  hal_mcu.o
    0x0800b7a0   0x000000a4   Code   RO         1602    i.hal_timer7_init   hal_timer.o
    0x0800b844   0x00000034   Code   RO         1603    i.hal_timer7_update_callback_register  hal_timer.o
    0x0800b878   0x00000094   Code   RO         1640    i.hal_uart5_init    hal_uart.o
    0x0800b90c   0x00000020   Code   RO         1641    i.hal_uart5_putchar  hal_uart.o
    0x0800b92c   0x00000002   Code   RO         1107    i.hw_led1_off       drv_led.o
    0x0800b92e   0x0000005c   Code   RO         1108    i.hw_led1_on        drv_led.o
    0x0800b98a   0x00000002   Code   RO         1109    i.hw_led2_off       drv_led.o
    0x0800b98c   0x0000005c   Code   RO         1110    i.hw_led2_on        drv_led.o
    0x0800b9e8   0x00000002   Code   RO         1111    i.hw_led3_off       drv_led.o
    0x0800b9ea   0x00000048   Code   RO         1112    i.hw_led3_on        drv_led.o
    0x0800ba32   0x00000002   Code   RO         1113    i.hw_led4_off       drv_led.o
    0x0800ba34   0x00000048   Code   RO         1114    i.hw_led4_on        drv_led.o
    0x0800ba7c   0x00000002   Code   RO         1115    i.hw_led5_off       drv_led.o
    0x0800ba7e   0x00000048   Code   RO         1116    i.hw_led5_on        drv_led.o
    0x0800bac6   0x00000002   Code   RO         1117    i.hw_led6_off       drv_led.o
    0x0800bac8   0x00000048   Code   RO         1118    i.hw_led6_on        drv_led.o
    0x0800bb10   0x00000002   Code   RO         1119    i.hw_led7_off       drv_led.o
    0x0800bb12   0x0000005c   Code   RO         1120    i.hw_led7_on        drv_led.o
    0x0800bb6e   0x00000002   PAD
    0x0800bb70   0x00000018   Code   RO         5423    i.key1_scan         bms_task.o
    0x0800bb88   0x00000082   Code   RO          309    i.key_detect_polling  co_key.o
    0x0800bc0a   0x00000034   Code   RO          310    i.key_object_create  co_key.o
    0x0800bc3e   0x00000006   Code   RO          311    i.key_object_read   co_key.o
    0x0800bc44   0x00000074   Code   RO         1121    i.led_on_off_scan   drv_led.o
    0x0800bcb8   0x00000144   Code   RO         5301    i.main              main.o
    0x0800bdfc   0x0000003a   Code   RO            2    i.os_fifo_check_offset_dat  os_fifo.o
    0x0800be36   0x00000034   Code   RO            3    i.os_fifo_create    os_fifo.o
    0x0800be6a   0x00000006   Code   RO            4    i.os_fifo_flush     os_fifo.o
    0x0800be70   0x00000032   Code   RO            5    i.os_fifo_flush_buf  os_fifo.o
    0x0800bea2   0x00000028   Code   RO            7    i.os_fifo_get_count  os_fifo.o
    0x0800beca   0x0000001a   Code   RO           10    i.os_fifo_init      os_fifo.o
    0x0800bee4   0x00000030   Code   RO           13    i.os_fifo_push_dat  os_fifo.o
    0x0800bf14   0x00000002   Code   RO          111    i.os_free           os_heap.o
    0x0800bf16   0x00000002   PAD
    0x0800bf18   0x0000002c   Code   RO          112    i.os_heap_allocate  os_heap.o
    0x0800bf44   0x00000014   Code   RO          113    i.os_heap_init      os_heap.o
    0x0800bf58   0x00000024   Code   RO          272    i.os_insert_timer   os_timer.o
    0x0800bf7c   0x00000050   Code   RO          114    i.os_malloc         os_heap.o
    0x0800bfcc   0x0000004c   Code   RO          221    i.os_task_create    os_task.o
    0x0800c018   0x00000030   Code   RO          222    i.os_task_create_proc  os_task.o
    0x0800c048   0x00000048   Code   RO          226    i.os_task_main      os_task.o
    0x0800c090   0x0000000c   Code   RO          227    i.os_task_tick_remap  os_task.o
    0x0800c09c   0x00000068   Code   RO          273    i.os_timer_create   os_timer.o
    0x0800c104   0x00000034   Code   RO          274    i.os_timer_ctrl     os_timer.o
    0x0800c138   0x00000040   Code   RO          276    i.os_timer_run      os_timer.o
    0x0800c178   0x00000090   Code   RO         5522    i.save_battery_serial_number  can_task.o
    0x0800c208   0x000000d0   Code   RO         5523    i.send_info_to_flightor  can_task.o
    0x0800c2d8   0x0000000c   Code   RO          593    i.user_can_rx_matrix_handle_register  drv_can.o
    0x0800c2e4   0x00000200   Data   RO          544    .constdata          co_crc.o
    0x0800c4e4   0x0000026c   Data   RO         1529    .constdata          hal_gpio.o
    0x0800c750   0x00000168   Data   RO         1692    .constdata          hal_can.o
    0x0800c8b8   0x00000018   Data   RO         4886    .constdata          system_stm32f1xx.o
    0x0800c8d0   0x00000008   Data   RO         5524    .constdata          can_task.o
    0x0800c8d8   0x00000020   Data   RO         6041    Region$$Table       anon$$obj.o


    Execution Region RW_IRAM1 (Base: 0x20000000, Size: 0x000032a8, Max: 0x0000c000, ABSOLUTE, COMPRESSED[0x00000070])

    Base Addr    Size         Type   Attr      Idx    E Section Name        Object

    0x20000000   0x0000000c   Data   RW          116    .data               os_heap.o
    0x2000000c   0x00000008   Data   RW          228    .data               os_task.o
    0x20000014   0x00000004   Data   RW          277    .data               os_timer.o
    0x20000018   0x00000004   Data   RW          594    .data               drv_can.o
    0x2000001c   0x00000005   Data   RW          747    .data               drv_key.o
    0x20000021   0x00000003   PAD
    0x20000024   0x00000078   Data   RW         1122    .data               drv_led.o
    0x2000009c   0x00000004   Data   RW         1295    .data               hal_mcu.o
    0x200000a0   0x00000001   Data   RW         1605    .data               hal_timer.o
    0x200000a1   0x00000003   PAD
    0x200000a4   0x0000000c   Data   RW         1693    .data               hal_can.o
    0x200000b0   0x00000009   Data   RW         1970    .data               stm32f1xx_hal.o
    0x200000b9   0x00000003   PAD
    0x200000bc   0x00000004   Data   RW         4887    .data               system_stm32f1xx.o
    0x200000c0   0x00000001   Data   RW         5273    .data               stm32f1xx_hal_spi_ex.o
    0x200000c1   0x00000003   PAD
    0x200000c4   0x00000009   Data   RW         5424    .data               bms_task.o
    0x200000cd   0x00000003   PAD
    0x200000d0   0x00000079   Data   RW         5525    .data               can_task.o
    0x20000149   0x00000003   PAD
    0x2000014c   0x00000007   Data   RW         5585    .data               flighter_batt_protocol.o
    0x20000153   0x00000001   PAD
    0x20000154   0x00000004   Data   RW         6017    .data               mc_w.l(stdout.o)
    0x20000158   0x00001400   Zero   RW          115    .bss                os_heap.o
    0x20001558   0x00001000   Zero   RW          994    .bss                drv_ex_flash.o
    0x20002558   0x0000004c   Zero   RW         1604    .bss                hal_timer.o
    0x200025a4   0x00000040   Zero   RW         1642    .bss                hal_uart.o
    0x200025e4   0x0000005c   Zero   RW         1691    .bss                hal_can.o
    0x20002640   0x00000058   Zero   RW         1912    .bss                hal_spi.o
    0x20002698   0x0000000f   Zero   RW         5584    .bss                flighter_batt_protocol.o
    0x200026a7   0x00000001   PAD
    0x200026a8   0x00000c00   Zero   RW         4918    STACK               startup_stm32f103xe.o


==============================================================================

Image component sizes


      Code (inc. data)   RO Data    RW Data    ZI Data      Debug   Object Name

       256         74          0          9          0       4834   bms_task.o
       796        204          8        121          0       5822   can_task.o
        48          4        512          0          0       2425   co_crc.o
       188          0          0          0          0       4307   co_key.o
       368          0          0          0          0       6353   co_packet.o
       178         22          0          4          0      10176   drv_can.o
      1096        122          0          0       4096       9765   drv_ex_flash.o
       162         26          0          5          0       3375   drv_key.o
       890         66          0        120          0      11928   drv_led.o
        34          0          0          0          0       1070   drv_print.o
      1094        240          0          7         15      13613   flighter_batt_protocol.o
      1480        116        360         12         92      10852   hal_can.o
       130          0          0          0          0        675   hal_clk.o
       444         22        620          0          0       8137   hal_gpio.o
        90         10          0          4          0     500062   hal_mcu.o
       288         30          0          0         88       2407   hal_spi.o
       280         40          0          1         76       2418   hal_timer.o
       180         18          0          0         64       1677   hal_uart.o
       324        142          0          0          0        575   main.o
       280          0          0          0          0       8894   os_fifo.o
       146         34          0         12       5120       2865   os_heap.o
       208         18          0          8          0       3713   os_task.o
       256         16          0          4          0       3249   os_timer.o
        36          8        304          0       3072        908   startup_stm32f103xe.o
       234         40          0          9          0     106879   stm32f1xx_hal.o
      1852         16          0          0          0       8140   stm32f1xx_hal_can.o
       338         22          0          0          0      26945   stm32f1xx_hal_cortex.o
       868         42          0          0          0       3960   stm32f1xx_hal_gpio.o
      1772        108          0          0          0       6040   stm32f1xx_hal_rcc.o
       304         14          0          0          0       1424   stm32f1xx_hal_rcc_ex.o
         2          0          0          0          0       1010   stm32f1xx_hal_spi.o
       148          4          0          1          0       1398   stm32f1xx_hal_spi_ex.o
       206         20          0          0          0       2400   stm32f1xx_hal_tim.o
       620          6          0          0          0       3490   stm32f1xx_hal_uart.o
        88         18         24          4          0       1443   system_stm32f1xx.o

    ----------------------------------------------------------------------
     15712       1502       1860        340      12624     783229   Object Totals
         0          0         32          0          0          0   (incl. Generated)
        28          0          0         19          1          0   (incl. Padding)

    ----------------------------------------------------------------------

      Code (inc. data)   RO Data    RW Data    ZI Data      Debug   Library Member Name

        86          0          0          0          0          0   __dczerorl2.o
         0          0          0          0          0          0   entry.o
         0          0          0          0          0          0   entry10a.o
         0          0          0          0          0          0   entry11a.o
         8          4          0          0          0          0   entry2.o
         4          0          0          0          0          0   entry5.o
         0          0          0          0          0          0   entry7b.o
         0          0          0          0          0          0   entry8b.o
         8          4          0          0          0          0   entry9a.o
        30          0          0          0          0          0   handlers.o
        36          8          0          0          0         68   init.o
        30          0          0          0          0         68   llshl.o
        32          0          0          0          0         68   llushr.o
        36          0          0          0          0        108   memseta.o
       736         56          0          0          0        184   printf5.o
         0          0          0          4          0          0   stdout.o
        98          0          0          0          0         92   uldiv.o

    ----------------------------------------------------------------------
      1108         72          0          4          0        588   Library Totals
         4          0          0          0          0          0   (incl. Padding)

    ----------------------------------------------------------------------

      Code (inc. data)   RO Data    RW Data    ZI Data      Debug   Library Name

      1104         72          0          4          0        588   mc_w.l

    ----------------------------------------------------------------------
      1108         72          0          4          0        588   Library Totals

    ----------------------------------------------------------------------

==============================================================================


      Code (inc. data)   RO Data    RW Data    ZI Data      Debug   

     16820       1574       1860        344      12624     774013   Grand Totals
     16820       1574       1860        112      12624     774013   ELF Image Totals (compressed)
     16820       1574       1860        112          0          0   ROM Totals

==============================================================================

    Total RO  Size (Code + RO Data)                18680 (  18.24kB)
    Total RW  Size (RW Data + ZI Data)             12968 (  12.66kB)
    Total ROM Size (Code + RO Data + RW Data)      18792 (  18.35kB)

==============================================================================

